

Microchip Technology PIC18 LITE Macro Assembler V1.45 build -152302408 
                                                                                               Mon May 07 18:05:15 2018

Microchip Technology Omniscient Code Generator v1.45 (Free mode) build 201711160504
     1                           	processor	18F67K22
     2                           	fnconf	rparam,??,?,0
     3                           	opt	pw 120
     4                           	opt	lm
     5                           	psect	idataCOMRAM,global,class=CODE,delta=1,noexec
     6                           	psect	idataBANK0,global,class=CODE,delta=1,noexec
     7                           	psect	smallconst,global,reloc=2,class=SMALLCONST,delta=1,noexec
     8                           	psect	cinit,global,reloc=2,class=CODE,delta=1
     9                           	psect	bssCOMRAM,global,class=COMRAM,space=1,delta=1,noexec
    10                           	psect	dataCOMRAM,global,class=COMRAM,space=1,delta=1,noexec
    11                           	psect	bssBANK0,global,class=BANK0,space=1,delta=1,lowdata,noexec
    12                           	psect	dataBANK0,global,class=BANK0,space=1,delta=1,lowdata,noexec
    13                           	psect	bssBANK1,global,class=BANK1,space=1,delta=1,lowdata,noexec
    14                           	psect	cstackBANK1,global,class=BANK1,space=1,delta=1,noexec
    15                           	psect	cstackBANK0,global,class=BANK0,space=1,delta=1,noexec
    16                           	psect	cstackCOMRAM,global,class=COMRAM,space=1,delta=1,noexec
    17                           	psect	text0,global,reloc=2,class=CODE,delta=1
    18                           	psect	text1,global,reloc=2,class=CODE,delta=1
    19                           	psect	text2,global,reloc=2,class=CODE,delta=1
    20                           	psect	text3,global,reloc=2,class=CODE,delta=1
    21                           	psect	text4,global,reloc=2,class=CODE,delta=1
    22                           	psect	text5,global,reloc=2,class=CODE,delta=1
    23                           	psect	text6,global,reloc=2,class=CODE,delta=1
    24                           	psect	text7,global,reloc=2,class=CODE,delta=1
    25                           	psect	text8,global,reloc=2,class=CODE,delta=1
    26                           	psect	text9,global,reloc=2,class=CODE,delta=1
    27                           	psect	text10,global,reloc=2,class=CODE,delta=1
    28                           	psect	text11,global,reloc=2,class=CODE,delta=1
    29                           	psect	text12,global,reloc=2,class=CODE,delta=1
    30                           	psect	text13,global,reloc=2,class=CODE,delta=1
    31                           	psect	text14,global,reloc=2,class=CODE,delta=1
    32                           	psect	text15,global,reloc=2,class=CODE,delta=1
    33                           	psect	text16,global,reloc=2,class=CODE,delta=1
    34                           	psect	text17,global,reloc=2,class=CODE,delta=1
    35                           	psect	text18,global,reloc=2,class=CODE,delta=1
    36                           	psect	text19,global,reloc=2,class=CODE,delta=1
    37                           	psect	text20,global,reloc=2,class=CODE,delta=1
    38                           	psect	text21,global,reloc=2,class=CODE,delta=1
    39                           	psect	text22,global,reloc=2,class=CODE,delta=1
    40                           	psect	text23,global,reloc=2,class=CODE,delta=1
    41                           	psect	text24,global,reloc=2,class=CODE,delta=1
    42                           	psect	text25,global,reloc=2,class=CODE,delta=1
    43                           	psect	text26,global,reloc=2,class=CODE,delta=1
    44                           	psect	text27,global,reloc=2,class=CODE,delta=1
    45                           	psect	text28,global,reloc=2,class=CODE,delta=1
    46                           	psect	text29,global,reloc=2,class=CODE,delta=1
    47                           	psect	text30,global,reloc=2,class=CODE,delta=1
    48                           	psect	text31,global,reloc=2,class=CODE,delta=1
    49                           	psect	text32,global,reloc=2,class=CODE,delta=1
    50                           	psect	text33,global,reloc=2,class=CODE,delta=1
    51                           	psect	text34,global,reloc=2,class=CODE,delta=1
    52                           	psect	text35,global,reloc=2,class=CODE,delta=1
    53                           	psect	intcodelo,global,reloc=2,class=CODE,delta=1
    54                           	psect	text37,global,reloc=2,class=CODE,delta=1
    55                           	psect	text38,global,reloc=2,class=CODE,delta=1
    56                           	psect	text39,global,reloc=2,class=CODE,delta=1
    57                           	psect	text40,global,reloc=2,class=CODE,delta=1
    58                           	psect	text41,global,reloc=2,class=CODE,delta=1
    59                           	psect	text42,global,reloc=2,class=CODE,delta=1
    60                           	psect	text43,global,reloc=2,class=CODE,delta=1
    61                           	psect	text44,global,reloc=2,class=CODE,delta=1
    62                           	psect	text45,global,reloc=2,class=CODE,delta=1
    63                           	psect	text46,global,reloc=2,class=CODE,delta=1
    64                           	psect	text47,global,reloc=2,class=CODE,delta=1
    65                           	psect	text48,global,reloc=2,class=CODE,delta=1
    66                           	psect	text49,global,reloc=2,class=CODE,delta=1
    67                           	psect	text50,global,reloc=2,class=CODE,delta=1
    68                           	psect	intcode,global,reloc=2,class=CODE,delta=1
    69                           	psect	intcode_body,global,reloc=2,class=CODE,delta=1
    70                           	psect	text52,global,reloc=2,class=CODE,delta=1
    71                           	psect	text53,global,reloc=2,class=CODE,delta=1
    72                           	psect	text54,global,reloc=2,class=CODE,delta=1
    73                           	psect	text55,global,reloc=2,class=CODE,delta=1
    74                           	psect	text56,global,reloc=2,class=CODE,delta=1
    75                           	psect	text57,global,reloc=2,class=CODE,delta=1
    76                           	psect	text58,global,reloc=2,class=CODE,delta=1
    77                           	psect	text59,global,reloc=2,class=CODE,delta=1
    78                           	psect	text60,global,reloc=2,class=CODE,delta=1
    79                           	psect	text61,global,reloc=2,class=CODE,delta=1
    80                           	psect	text62,global,reloc=2,class=CODE,delta=1
    81                           	psect	intsave_regs,global,class=BIGRAM,space=1,delta=1,noexec
    82                           	psect	text63,global,reloc=2,class=CODE,delta=1
    83                           	psect	rparam,global,class=COMRAM,space=1,delta=1,noexec
    84                           	psect	temp,global,ovrld,common,class=COMRAM,space=1,delta=1
    85  0000                     
    86                           ; Version 1.45
    87                           ; Generated 16/11/2017 GMT
    88                           ; 
    89                           ; Copyright © 2017, Microchip Technology Inc. and its subsidiaries ("Microchip")
    90                           ; All rights reserved.
    91                           ; 
    92                           ; This software is developed by Microchip Technology Inc. and its subsidiaries ("Microch
      +                          ip").
    93                           ; 
    94                           ; Redistribution and use in source and binary forms, with or without modification, are
    95                           ; permitted provided that the following conditions are met:
    96                           ; 
    97                           ;     1. Redistributions of source code must retain the above copyright notice, this lis
      +                          t of
    98                           ;        conditions and the following disclaimer.
    99                           ; 
   100                           ;     2. Redistributions in binary form must reproduce the above copyright notice, this 
      +                          list
   101                           ;        of conditions and the following disclaimer in the documentation and/or other
   102                           ;        materials provided with the distribution.
   103                           ; 
   104                           ;     3. Microchip's name may not be used to endorse or promote products derived from th
      +                          is
   105                           ;        software without specific prior written permission.
   106                           ; 
   107                           ; THIS SOFTWARE IS PROVIDED BY MICROCHIP "AS IS" AND ANY EXPRESS OR IMPLIED WARRANTIES,
   108                           ; INCLUDING, BUT NOT LIMITED TO, THE IMPLIED WARRANTIES OF MERCHANTABILITY AND FITNESS F
      +                          OR
   109                           ; PURPOSE ARE DISCLAIMED.  IN NO EVENT SHALL MICROCHIP BE LIABLE FOR ANY DIRECT, INDIREC
      +                          T,
   110                           ; INCIDENTAL, SPECIAL, EXEMPLARY, OR CONSEQUENTIAL DAMAGES (INCLUDING BUT NOT LIMITED TO
   111                           ; PROCUREMENT OF SUBSTITUTE GOODS OR SERVICES; LOSS OF USE, DATA OR PROFITS; OR BUSINESS
   112                           ; INTERRUPTION) HOWSOEVER CAUSED AND ON ANY THEORY OF LIABILITY, WHETHER IN CONTRACT, ST
      +                          RICT
   113                           ; LIABILITY, OR TORT (INCLUDING NEGLIGENCE OR OTHERWISE) ARISING IN ANY WAY OUT OF THE U
      +                          SE OF
   114                           ; THIS SOFTWARE, EVEN IF ADVISED OF THE POSSIBILITY OF SUCH DAMAGE.
   115                           ; 
   116                           ; 
   117                           ; Code-generator required, PIC18F67K22 Definitions
   118                           ; 
   119                           ; SFR Addresses
   120  0000                     
   121                           	psect	idataCOMRAM
   122  002346                     __pidataCOMRAM:
   123                           	opt stack 0
   124                           
   125                           ;initializer for _SEQ_NUMBER
   126  002346  23                 	db	35
   127                           
   128                           	psect	idataBANK0
   129  0021DE                     __pidataBANK0:
   130                           	opt stack 0
   131                           
   132                           ;initializer for _ADDRESS_long_1
   133  0021DE  01                 	db	1
   134  0021DF  01                 	db	1
   135  0021E0  01                 	db	1
   136  0021E1  01                 	db	1
   137  0021E2  01                 	db	1
   138  0021E3  01                 	db	1
   139  0021E4  01                 	db	1
   140  0021E5  01                 	db	1
   141                           
   142                           ;initializer for _PAN_ID_1
   143  0021E6  03                 	db	3
   144  0021E7  03                 	db	3
   145                           
   146                           ;initializer for _ADDRESS_short_1
   147  0021E8  01                 	db	1
   148  0021E9  01                 	db	1
   149                           
   150                           ;initializer for _address_RX_FIFO
   151  0021EA  0300               	dw	768
   152                           
   153                           ;initializer for _ADDRESS_long_2
   154  0021EC  02                 	db	2
   155  0021ED  02                 	db	2
   156  0021EE  02                 	db	2
   157  0021EF  02                 	db	2
   158  0021F0  02                 	db	2
   159  0021F1  02                 	db	2
   160  0021F2  02                 	db	2
   161  0021F3  02                 	db	2
   162                           
   163                           ;initializer for _PAN_ID_2
   164  0021F4  03                 	db	3
   165  0021F5  03                 	db	3
   166                           
   167                           ;initializer for _ADDRESS_short_2
   168  0021F6  02                 	db	2
   169  0021F7  02                 	db	2
   170                           
   171                           	psect	smallconst
   172  001000                     __psmallconst:
   173                           	opt stack 0
   174  001000  00                 	db	0
   175  001001                     _Resistance0:
   176                           	opt stack 0
   177  001001  B3                 	db	179
   178  001002  71                 	db	113
   179  001003  49                 	db	73
   180  001004                     __end_of_Resistance0:
   181                           	opt stack 0
   182  001004                     _Vcc:
   183                           	opt stack 0
   184  001004  33                 	db	51
   185  001005  53                 	db	83
   186  001006  40                 	db	64
   187  001007                     __end_of_Vcc:
   188                           	opt stack 0
   189  001007                     _R3:
   190                           	opt stack 0
   191  001007  40                 	db	64
   192  001008  1C                 	db	28
   193  001009  46                 	db	70
   194  00100A                     __end_of_R3:
   195                           	opt stack 0
   196  00100A                     _AdcRef:
   197                           	opt stack 0
   198  00100A  33                 	db	51
   199  00100B  53                 	db	83
   200  00100C  3A                 	db	58
   201  00100D                     __end_of_AdcRef:
   202                           	opt stack 0
   203  00100D                     _HEADER_LENGHT:
   204                           	opt stack 0
   205  00100D  0B                 	db	11
   206  00100E                     __end_of_HEADER_LENGHT:
   207                           	opt stack 0
   208  00100E                     _DATA_LENGHT:
   209                           	opt stack 0
   210  00100E  05                 	db	5
   211  00100F                     __end_of_DATA_LENGHT:
   212                           	opt stack 0
   213  0000                     _ANCON2	set	3875
   214  0000                     _ANCON1	set	3876
   215  0000                     _ANCON0	set	3877
   216  0000                     _REFOCON	set	3882
   217  0000                     _PORTE	set	3972
   218  0000                     _PORTDbits	set	3971
   219  0000                     _PORTAbits	set	3968
   220  0000                     _EECON2	set	3966
   221  0000                     _EECON1bits	set	3967
   222  0000                     _EEDATA	set	3937
   223  0000                     _EEADR	set	3938
   224  0000                     _PIR1bits	set	3998
   225  0000                     _SSP1BUF	set	4041
   226  0000                     _SSP1STATbits	set	4039
   227  0000                     _TRISCbits	set	3988
   228  0000                     _SSP1CON1bits	set	4038
   229  0000                     _PORTFbits	set	3973
   230  0000                     _PORTCbits	set	3970
   231  0000                     _ADCON0bits	set	4034
   232  0000                     _ADRESL	set	4035
   233  0000                     _ADRESH	set	4036
   234  0000                     _ADCON2	set	4032
   235  0000                     _ADCON1	set	4033
   236  0000                     _ADCON0	set	4034
   237  0000                     _TRISD	set	3989
   238  0000                     _TRISC	set	3988
   239  0000                     _TRISB	set	3987
   240  0000                     _TRISG	set	3992
   241  0000                     _TRISA	set	3986
   242  0000                     _TRISF	set	3991
   243  0000                     _TRISE	set	3990
   244  0000                     _LATC	set	3979
   245  0000                     _LATG	set	3983
   246  0000                     _LATB	set	3978
   247  0000                     _LATF	set	3982
   248  0000                     _LATA	set	3977
   249  0000                     _LATD	set	3980
   250  0000                     _LATE	set	3981
   251  0000                     _RCONbits	set	4048
   252  0000                     _INTCON2bits	set	4081
   253  0000                     _OSCTUNE	set	3995
   254  0000                     _OSCCON2	set	3940
   255  0000                     _OSCCON	set	4051
   256  0000                     _T0CONbits	set	4053
   257  0000                     _T0CON	set	4053
   258  0000                     _INTCONbits	set	4082
   259  0000                     _TMR0L	set	4054
   260  0000                     _TMR0H	set	4055
   261                           
   262                           ; #config settings
   263  00100F  00                 	db	0	; dummy byte at the end
   264  0000                     
   265                           	psect	cinit
   266  001B9E                     __pcinit:
   267                           	opt stack 0
   268  001B9E                     start_initialization:
   269                           	opt stack 0
   270  001B9E                     __initialization:
   271                           	opt stack 0
   272                           
   273                           ; Initialize objects allocated to BANK0 (26 bytes)
   274                           ; load TBLPTR registers with __pidataBANK0
   275  001B9E  0EDE               	movlw	low __pidataBANK0
   276  001BA0  6EF6               	movwf	tblptrl,c
   277  001BA2  0E21               	movlw	high __pidataBANK0
   278  001BA4  6EF7               	movwf	tblptrh,c
   279  001BA6  0E00               	movlw	low (__pidataBANK0 shr (0+16))
   280  001BA8  6EF8               	movwf	tblptru,c
   281  001BAA  EE00  F0E0         	lfsr	0,__pdataBANK0
   282  001BAE  EE10 F01A          	lfsr	1,26
   283  001BB2                     copy_data0:
   284  001BB2  0009               	tblrd		*+
   285  001BB4  CFF5 FFEE          	movff	tablat,postinc0
   286  001BB8  50E5               	movf	postdec1,w,c
   287  001BBA  50E1               	movf	fsr1l,w,c
   288  001BBC  E1FA               	bnz	copy_data0
   289                           
   290                           ; Initialize objects allocated to COMRAM (1 bytes)
   291                           ; load TBLPTR registers with __pidataCOMRAM
   292  001BBE  0E46               	movlw	low __pidataCOMRAM
   293  001BC0  6EF6               	movwf	tblptrl,c
   294  001BC2  0E23               	movlw	high __pidataCOMRAM
   295  001BC4  6EF7               	movwf	tblptrh,c
   296  001BC6  0E00               	movlw	low (__pidataCOMRAM shr (0+16))
   297  001BC8  6EF8               	movwf	tblptru,c
   298  001BCA  0009               	tblrd		*+	;fetch initializer
   299  001BCC  CFF5 F04E          	movff	tablat,__pdataCOMRAM
   300                           
   301                           ; Clear objects allocated to BANK1 (41 bytes)
   302  001BD0  EE01  F000         	lfsr	0,__pbssBANK1
   303  001BD4  0E29               	movlw	41
   304  001BD6                     clear_0:
   305  001BD6  6AEE               	clrf	postinc0,c
   306  001BD8  06E8               	decf	wreg,f,c
   307  001BDA  E1FD               	bnz	clear_0
   308                           
   309                           ; Clear objects allocated to BANK0 (91 bytes)
   310  001BDC  EE00  F060         	lfsr	0,__pbssBANK0
   311  001BE0  0E5B               	movlw	91
   312  001BE2                     clear_1:
   313  001BE2  6AEE               	clrf	postinc0,c
   314  001BE4  06E8               	decf	wreg,f,c
   315  001BE6  E1FD               	bnz	clear_1
   316                           
   317                           ; Clear objects allocated to COMRAM (41 bytes)
   318  001BE8  EE00  F001         	lfsr	0,__pbssCOMRAM
   319  001BEC  0E29               	movlw	41
   320  001BEE                     clear_2:
   321  001BEE  6AEE               	clrf	postinc0,c
   322  001BF0  06E8               	decf	wreg,f,c
   323  001BF2  E1FD               	bnz	clear_2
   324  001BF4                     end_of_initialization:
   325                           	opt stack 0
   326  001BF4                     __end_of__initialization:
   327                           	opt stack 0
   328  001BF4  904F               	bcf	int$flags,0,c	;clear compiler interrupt flag (level 1)
   329  001BF6  924F               	bcf	int$flags,1,c	;clear compiler interrupt flag (level 2)
   330  001BF8  0100               	movlb	0
   331  001BFA  EF49  F009         	goto	_main	;jump to C main() function
   332                           tblptru	equ	0xFF8
   333                           tblptrh	equ	0xFF7
   334                           tblptrl	equ	0xFF6
   335                           tablat	equ	0xFF5
   336                           postinc0	equ	0xFEE
   337                           wreg	equ	0xFE8
   338                           postdec1	equ	0xFE5
   339                           fsr1l	equ	0xFE1
   340                           
   341                           	psect	bssCOMRAM
   342  000001                     __pbssCOMRAM:
   343                           	opt stack 0
   344  000001                     _F_Calling:
   345                           	opt stack 0
   346  000001                     	ds	1
   347  000002                     _T_Calling:
   348                           	opt stack 0
   349  000002                     	ds	1
   350  000003                     _tick:
   351                           	opt stack 0
   352  000003                     	ds	1
   353  000004                     _portread:
   354                           	opt stack 0
   355  000004                     	ds	1
   356  000005                     _Send_Frame:
   357                           	opt stack 0
   358  000005                     	ds	1
   359  000006                     _F_ID_SEND:
   360                           	opt stack 0
   361  000006                     	ds	1
   362  000007                     _T_BUZZER:
   363                           	opt stack 0
   364  000007                     	ds	1
   365  000008                     _F_BUZZER:
   366                           	opt stack 0
   367  000008                     	ds	1
   368  000009                     _F_ID_Send:
   369                           	opt stack 0
   370  000009                     	ds	1
   371  00000A                     _ID_READ:
   372                           	opt stack 0
   373  00000A                     	ds	1
   374  00000B                     _Nilp:
   375                           	opt stack 0
   376  00000B                     	ds	1
   377  00000C                     _address:
   378                           	opt stack 0
   379  00000C                     	ds	1
   380  00000D                     _VALUE:
   381                           	opt stack 0
   382  00000D                     	ds	1
   383  00000E                     _value:
   384                           	opt stack 0
   385  00000E                     	ds	1
   386  00000F                     _Trick:
   387                           	opt stack 0
   388  00000F                     	ds	1
   389  000010                     _Tick:
   390                           	opt stack 0
   391  000010                     	ds	1
   392  000011                     _TX_ID:
   393                           	opt stack 0
   394  000011                     	ds	1
   395  000012                     _T_ID_Send:
   396                           	opt stack 0
   397  000012                     	ds	1
   398  000013                     _F_SetID:
   399                           	opt stack 0
   400  000013                     	ds	1
   401  000014                     _T:
   402                           	opt stack 0
   403  000014                     	ds	1
   404  000015                     _Count_LED:
   405                           	opt stack 0
   406  000015                     	ds	1
   407  000016                     _F_ERROR:
   408                           	opt stack 0
   409  000016                     	ds	1
   410  000017                     _ERROR:
   411                           	opt stack 0
   412  000017                     	ds	1
   413  000018                     _slave_add:
   414                           	opt stack 0
   415  000018                     	ds	1
   416  000019                     _Store:
   417                           	opt stack 0
   418  000019                     	ds	1
   419  00001A                     _d:
   420                           	opt stack 0
   421  00001A                     	ds	1
   422  00001B                     _ii:
   423                           	opt stack 0
   424  00001B                     	ds	1
   425  00001C                     _i:
   426                           	opt stack 0
   427  00001C                     	ds	1
   428  00001D                     _F_IdSet:
   429                           	opt stack 0
   430  00001D                     	ds	1
   431  00001E                     _InputRead:
   432                           	opt stack 0
   433  00001E                     	ds	1
   434  00001F                     _Portread:
   435                           	opt stack 0
   436  00001F                     	ds	1
   437  000020                     _F_Input:
   438                           	opt stack 0
   439  000020                     	ds	1
   440  000021                     _T_Input:
   441                           	opt stack 0
   442  000021                     	ds	1
   443  000022                     _lost_data:
   444                           	opt stack 0
   445  000022                     	ds	1
   446  000023                     _RSSI2:
   447                           	opt stack 0
   448  000023                     	ds	1
   449  000024                     _LQI:
   450                           	opt stack 0
   451  000024                     	ds	1
   452  000025                     _data_r:
   453                           	opt stack 0
   454  000025                     	ds	1
   455  000026                     _DATA:
   456                           	opt stack 0
   457  000026                     	ds	1
   458  000027                     _CHECK:
   459                           	opt stack 0
   460  000027                     	ds	1
   461  000028                     _LENGTH:
   462                           	opt stack 0
   463  000028                     	ds	1
   464  000029                     _INTTRUPT:
   465                           	opt stack 0
   466  000029                     	ds	1
   467                           tblptru	equ	0xFF8
   468                           tblptrh	equ	0xFF7
   469                           tblptrl	equ	0xFF6
   470                           tablat	equ	0xFF5
   471                           postinc0	equ	0xFEE
   472                           wreg	equ	0xFE8
   473                           postdec1	equ	0xFE5
   474                           fsr1l	equ	0xFE1
   475                           
   476                           	psect	dataCOMRAM
   477  00004E                     __pdataCOMRAM:
   478                           	opt stack 0
   479  00004E                     _SEQ_NUMBER:
   480                           	opt stack 0
   481  00004E                     	ds	1
   482                           tblptru	equ	0xFF8
   483                           tblptrh	equ	0xFF7
   484                           tblptrl	equ	0xFF6
   485                           tablat	equ	0xFF5
   486                           postinc0	equ	0xFEE
   487                           wreg	equ	0xFE8
   488                           postdec1	equ	0xFE5
   489                           fsr1l	equ	0xFE1
   490                           
   491                           	psect	bssBANK0
   492  000060                     __pbssBANK0:
   493                           	opt stack 0
   494  000060                     _data_TX_normal_FIFO:
   495                           	opt stack 0
   496  000060                     	ds	18
   497  000072                     _ZigBee_Receive_Buffer:
   498                           	opt stack 0
   499  000072                     	ds	6
   500  000078                     _Light:
   501                           	opt stack 0
   502  000078                     	ds	4
   503  00007C                     _Delta:
   504                           	opt stack 0
   505  00007C                     	ds	4
   506  000080                     _ResistanceLDR:
   507                           	opt stack 0
   508  000080                     	ds	3
   509  000083                     _VoltageOutput:
   510                           	opt stack 0
   511  000083                     	ds	3
   512  000086                     _Store_DATA:
   513                           	opt stack 0
   514  000086                     	ds	3
   515  000089                     _INT0_InterruptHandler:
   516                           	opt stack 0
   517  000089                     	ds	3
   518  00008C                     _TMR0_InterruptHandler:
   519                           	opt stack 0
   520  00008C                     	ds	3
   521  00008F                     _LED_FRAME:
   522                           	opt stack 0
   523  00008F                     	ds	2
   524  000091                     _Value_LDR:
   525                           	opt stack 0
   526  000091                     	ds	2
   527  000093                     _Time_start:
   528                           	opt stack 0
   529  000093                     	ds	2
   530  000095                     _ckeck:
   531                           	opt stack 0
   532  000095                     	ds	2
   533  000097                     _T_ERROR:
   534                           	opt stack 0
   535  000097                     	ds	2
   536  000099                     _CRC:
   537                           	opt stack 0
   538  000099                     	ds	2
   539  00009B                     _TX_CRC:
   540                           	opt stack 0
   541  00009B                     	ds	2
   542  00009D                     _Rv_CRC:
   543                           	opt stack 0
   544  00009D                     	ds	2
   545  00009F                     _address_TX_normal_FIFO:
   546                           	opt stack 0
   547  00009F                     	ds	2
   548  0000A1                     _g:
   549                           	opt stack 0
   550  0000A1                     	ds	1
   551  0000A2                     _F_Receive:
   552                           	opt stack 0
   553  0000A2                     	ds	1
   554  0000A3                     _F_LDR_STATUS:
   555                           	opt stack 0
   556  0000A3                     	ds	1
   557  0000A4                     _ID_READ_Store:
   558                           	opt stack 0
   559  0000A4                     	ds	1
   560  0000A5                     _Previous_Status:
   561                           	opt stack 0
   562  0000A5                     	ds	1
   563  0000A6                     _F_MSG:
   564                           	opt stack 0
   565  0000A6                     	ds	1
   566  0000A7                     _ALT_ON:
   567                           	opt stack 0
   568  0000A7                     	ds	1
   569  0000A8                     _F_LED1:
   570                           	opt stack 0
   571  0000A8                     	ds	1
   572  0000A9                     _tick1:
   573                           	opt stack 0
   574  0000A9                     	ds	1
   575  0000AA                     _tick2:
   576                           	opt stack 0
   577  0000AA                     	ds	1
   578  0000AB                     _F_Buzzer:
   579                           	opt stack 0
   580  0000AB                     	ds	1
   581  0000AC                     _RECEIVE_OK:
   582                           	opt stack 0
   583  0000AC                     	ds	1
   584  0000AD                     _Send_Frame_2:
   585                           	opt stack 0
   586  0000AD                     	ds	1
   587  0000AE                     _ID_SET:
   588                           	opt stack 0
   589  0000AE                     	ds	1
   590  0000AF                     _Device_ID:
   591                           	opt stack 0
   592  0000AF                     	ds	1
   593  0000B0                     _Count2:
   594                           	opt stack 0
   595  0000B0                     	ds	1
   596  0000B1                     _Count1:
   597                           	opt stack 0
   598  0000B1                     	ds	1
   599  0000B2                     _timer0ReloadVal:
   600                           	opt stack 0
   601  0000B2                     	ds	1
   602  0000B3                     _DATA_RX:
   603                           	opt stack 0
   604  0000B3                     	ds	5
   605  0000B8                     _DATA_TX:
   606                           	opt stack 0
   607  0000B8                     	ds	3
   608                           tblptru	equ	0xFF8
   609                           tblptrh	equ	0xFF7
   610                           tblptrl	equ	0xFF6
   611                           tablat	equ	0xFF5
   612                           postinc0	equ	0xFEE
   613                           wreg	equ	0xFE8
   614                           postdec1	equ	0xFE5
   615                           fsr1l	equ	0xFE1
   616                           
   617                           	psect	dataBANK0
   618  0000E0                     __pdataBANK0:
   619                           	opt stack 0
   620  0000E0                     _ADDRESS_long_1:
   621                           	opt stack 0
   622  0000E0                     	ds	8
   623  0000E8                     _PAN_ID_1:
   624                           	opt stack 0
   625  0000E8                     	ds	2
   626  0000EA                     _ADDRESS_short_1:
   627                           	opt stack 0
   628  0000EA                     	ds	2
   629  0000EC                     _address_RX_FIFO:
   630                           	opt stack 0
   631  0000EC                     	ds	2
   632  0000EE                     _ADDRESS_long_2:
   633                           	opt stack 0
   634  0000EE                     	ds	8
   635  0000F6                     _PAN_ID_2:
   636                           	opt stack 0
   637  0000F6                     	ds	2
   638  0000F8                     _ADDRESS_short_2:
   639                           	opt stack 0
   640  0000F8                     	ds	2
   641                           tblptru	equ	0xFF8
   642                           tblptrh	equ	0xFF7
   643                           tblptrl	equ	0xFF6
   644                           tablat	equ	0xFF5
   645                           postinc0	equ	0xFEE
   646                           wreg	equ	0xFE8
   647                           postdec1	equ	0xFE5
   648                           fsr1l	equ	0xFE1
   649                           
   650                           	psect	bssBANK1
   651  000100                     __pbssBANK1:
   652                           	opt stack 0
   653  000100                     _data_RX_FIFO:
   654                           	opt stack 0
   655  000100                     	ds	21
   656  000115                     _Zigbee_Device_Id:
   657                           	opt stack 0
   658  000115                     	ds	20
   659                           tblptru	equ	0xFF8
   660                           tblptrh	equ	0xFF7
   661                           tblptrl	equ	0xFF6
   662                           tablat	equ	0xFF5
   663                           postinc0	equ	0xFEE
   664                           wreg	equ	0xFE8
   665                           postdec1	equ	0xFE5
   666                           fsr1l	equ	0xFE1
   667                           
   668                           	psect	cstackBANK1
   669  000129                     __pcstackBANK1:
   670                           	opt stack 0
   671  000129                     SPI_Write@response:
   672                           	opt stack 0
   673  000129                     Display_LED_Indication@Id:
   674                           	opt stack 0
   675  000129                     Clear_Data@n:
   676                           	opt stack 0
   677  000129                     delay@dly:
   678                           	opt stack 0
   679  000129                     Delay_ms@time:
   680                           	opt stack 0
   681  000129                     TMR0_SetInterruptHandler@InterruptHandler:
   682                           	opt stack 0
   683  000129                     INT0_SetInterruptHandler@InterruptHandler:
   684                           	opt stack 0
   685                           
   686                           ; 3 bytes @ 0x0
   687  000129                     	ds	1
   688  00012A                     SPI_Write@command:
   689                           	opt stack 0
   690                           
   691                           ; 1 bytes @ 0x1
   692  00012A                     	ds	1
   693  00012B                     write_ZIGBEE_short@data_r:
   694                           	opt stack 0
   695  00012B                     write_ZIGBEE_long@address:
   696                           	opt stack 0
   697  00012B                     delay@l:
   698                           	opt stack 0
   699  00012B                     Delay_ms@y:
   700                           	opt stack 0
   701                           
   702                           ; 2 bytes @ 0x2
   703  00012B                     	ds	1
   704  00012C                     write_ZIGBEE_short@address:
   705                           	opt stack 0
   706                           
   707                           ; 1 bytes @ 0x3
   708  00012C                     	ds	1
   709  00012D                     set_CCA_mode@CCA_mode:
   710                           	opt stack 0
   711  00012D                     set_RSSI_mode@RSSI_mode:
   712                           	opt stack 0
   713  00012D                     nonbeacon_PAN_coordinator_device@temp:
   714                           	opt stack 0
   715  00012D                     set_frame_format_filter@fff_mode:
   716                           	opt stack 0
   717  00012D                     set_reception_mode@r_mode:
   718                           	opt stack 0
   719  00012D                     write_ZIGBEE_long@data_r:
   720                           	opt stack 0
   721  00012D                     set_long_address@address:
   722                           	opt stack 0
   723  00012D                     set_short_address@address:
   724                           	opt stack 0
   725  00012D                     set_PAN_ID@address:
   726                           	opt stack 0
   727                           
   728                           ; 2 bytes @ 0x4
   729  00012D                     	ds	1
   730  00012E                     ??_write_ZIGBEE_long:
   731  00012E                     set_CCA_mode@temp:
   732                           	opt stack 0
   733  00012E                     set_RSSI_mode@temp:
   734                           	opt stack 0
   735  00012E                     set_frame_format_filter@temp:
   736                           	opt stack 0
   737  00012E                     set_reception_mode@temp:
   738                           	opt stack 0
   739                           
   740                           ; 1 bytes @ 0x5
   741  00012E                     	ds	1
   742  00012F                     set_long_address@i:
   743                           	opt stack 0
   744                           
   745                           ; 1 bytes @ 0x6
   746  00012F                     	ds	1
   747  000130                     write_ZIGBEE_long@address_high:
   748                           	opt stack 0
   749                           
   750                           ; 1 bytes @ 0x7
   751  000130                     	ds	1
   752  000131                     write_ZIGBEE_long@address_low:
   753                           	opt stack 0
   754                           
   755                           ; 1 bytes @ 0x8
   756  000131                     	ds	1
   757  000132                     ??_set_TX_power:
   758  000132                     set_channel@channel_number:
   759                           	opt stack 0
   760                           
   761                           ; 1 bytes @ 0x9
   762  000132                     	ds	1
   763  000133                     set_TX_power@power:
   764                           	opt stack 0
   765                           
   766                           ; 1 bytes @ 0xA
   767  000133                     	ds	1
   768  000134                     tblptru	equ	0xFF8
   769                           tblptrh	equ	0xFF7
   770                           tblptrl	equ	0xFF6
   771                           tablat	equ	0xFF5
   772                           postinc0	equ	0xFEE
   773                           wreg	equ	0xFE8
   774                           postdec1	equ	0xFE5
   775                           fsr1l	equ	0xFE1
   776                           
   777                           ; 1 bytes @ 0xB
   778                           
   779                           	psect	cstackBANK0
   780  0000BB                     __pcstackBANK0:
   781                           	opt stack 0
   782  0000BB                     ?_Xor_check:
   783                           	opt stack 0
   784  0000BB                     SPI_Read@TempVar:
   785                           	opt stack 0
   786  0000BB                     i1SPI_Write@response:
   787                           	opt stack 0
   788  0000BB                     Xor_check@data_value:
   789                           	opt stack 0
   790  0000BB                     i1Delay_ms@time:
   791                           	opt stack 0
   792                           
   793                           ; 2 bytes @ 0x0
   794  0000BB                     	ds	1
   795  0000BC                     i1SPI_Write@command:
   796                           	opt stack 0
   797                           
   798                           ; 1 bytes @ 0x1
   799  0000BC                     	ds	1
   800  0000BD                     read_ZIGBEE_short@data_r:
   801                           	opt stack 0
   802  0000BD                     Xor_check@length:
   803                           	opt stack 0
   804  0000BD                     i1write_ZIGBEE_short@data_r:
   805                           	opt stack 0
   806  0000BD                     i1write_ZIGBEE_long@address:
   807                           	opt stack 0
   808  0000BD                     i1Delay_ms@y:
   809                           	opt stack 0
   810                           
   811                           ; 2 bytes @ 0x2
   812  0000BD                     	ds	1
   813  0000BE                     ??_Xor_check:
   814  0000BE                     read_ZIGBEE_short@address:
   815                           	opt stack 0
   816  0000BE                     i1write_ZIGBEE_short@address:
   817                           	opt stack 0
   818                           
   819                           ; 1 bytes @ 0x3
   820  0000BE                     	ds	1
   821  0000BF                     set_not_ACK@temp:
   822                           	opt stack 0
   823  0000BF                     set_not_encrypt@temp:
   824                           	opt stack 0
   825  0000BF                     i1write_ZIGBEE_long@data_r:
   826                           	opt stack 0
   827  0000BF                     Xor_check@xor_value:
   828                           	opt stack 0
   829                           
   830                           ; 2 bytes @ 0x4
   831  0000BF                     	ds	1
   832  0000C0                     ??i1_write_ZIGBEE_long:
   833                           
   834                           ; 1 bytes @ 0x5
   835  0000C0                     	ds	1
   836  0000C1                     Xor_check@xor:
   837                           	opt stack 0
   838                           
   839                           ; 2 bytes @ 0x6
   840  0000C1                     	ds	1
   841  0000C2                     i1write_ZIGBEE_long@address_high:
   842                           	opt stack 0
   843                           
   844                           ; 1 bytes @ 0x7
   845  0000C2                     	ds	1
   846  0000C3                     i1write_ZIGBEE_long@address_low:
   847                           	opt stack 0
   848                           
   849                           ; 1 bytes @ 0x8
   850  0000C3                     	ds	1
   851  0000C4                     ??_write_TX_normal_FIFO:
   852                           
   853                           ; 1 bytes @ 0x9
   854  0000C4                     	ds	5
   855  0000C9                     write_TX_normal_FIFO@n:
   856                           	opt stack 0
   857                           
   858                           ; 1 bytes @ 0xE
   859  0000C9                     	ds	1
   860  0000CA                     write_TX_normal_FIFO@i:
   861                           	opt stack 0
   862                           
   863                           ; 1 bytes @ 0xF
   864  0000CA                     	ds	1
   865  0000CB                     ??_INTERRUPT_InterruptManagerLow:
   866                           
   867                           ; 1 bytes @ 0x10
   868  0000CB                     	ds	21
   869                           tblptru	equ	0xFF8
   870                           tblptrh	equ	0xFF7
   871                           tblptrl	equ	0xFF6
   872                           tablat	equ	0xFF5
   873                           postinc0	equ	0xFEE
   874                           wreg	equ	0xFE8
   875                           postdec1	equ	0xFE5
   876                           fsr1l	equ	0xFE1
   877                           
   878                           	psect	cstackCOMRAM
   879  00002A                     __pcstackCOMRAM:
   880                           	opt stack 0
   881  00002A                     ?i2_Xor_check:
   882                           	opt stack 0
   883  00002A                     Zigbee_data_Store_Buffer@a:
   884                           	opt stack 0
   885  00002A                     i2SPI_Write@response:
   886                           	opt stack 0
   887  00002A                     i2SPI_Read@TempVar:
   888                           	opt stack 0
   889  00002A                     i2Xor_check@data_value:
   890                           	opt stack 0
   891                           
   892                           ; 2 bytes @ 0x0
   893  00002A                     	ds	1
   894  00002B                     i2SPI_Write@command:
   895                           	opt stack 0
   896                           
   897                           ; 1 bytes @ 0x1
   898  00002B                     	ds	1
   899  00002C                     i2write_ZIGBEE_short@data_r:
   900                           	opt stack 0
   901  00002C                     i2read_ZIGBEE_short@address:
   902                           	opt stack 0
   903  00002C                     i2Xor_check@length:
   904                           	opt stack 0
   905  00002C                     read_ZIGBEE_long@address:
   906                           	opt stack 0
   907                           
   908                           ; 2 bytes @ 0x2
   909  00002C                     	ds	1
   910  00002D                     ??i2_Xor_check:
   911  00002D                     i2write_ZIGBEE_short@address:
   912                           	opt stack 0
   913  00002D                     i2read_ZIGBEE_short@data_r:
   914                           	opt stack 0
   915                           
   916                           ; 1 bytes @ 0x3
   917  00002D                     	ds	1
   918  00002E                     ??_read_ZIGBEE_long:
   919  00002E                     i2Xor_check@xor_value:
   920                           	opt stack 0
   921                           
   922                           ; 2 bytes @ 0x4
   923  00002E                     	ds	2
   924  000030                     read_ZIGBEE_long@data_r:
   925                           	opt stack 0
   926  000030                     i2Xor_check@xor:
   927                           	opt stack 0
   928                           
   929                           ; 2 bytes @ 0x6
   930  000030                     	ds	1
   931  000031                     read_ZIGBEE_long@address_high:
   932                           	opt stack 0
   933                           
   934                           ; 1 bytes @ 0x7
   935  000031                     	ds	1
   936  000032                     read_ZIGBEE_long@address_low:
   937                           	opt stack 0
   938                           
   939                           ; 1 bytes @ 0x8
   940  000032                     	ds	1
   941  000033                     ??_read_RX_FIFO:
   942                           
   943                           ; 1 bytes @ 0x9
   944  000033                     	ds	5
   945  000038                     read_RX_FIFO@temp:
   946                           	opt stack 0
   947                           
   948                           ; 1 bytes @ 0xE
   949  000038                     	ds	1
   950  000039                     read_RX_FIFO@i:
   951                           	opt stack 0
   952                           
   953                           ; 1 bytes @ 0xF
   954  000039                     	ds	1
   955  00003A                     ??_INTERRUPT_InterruptManagerHigh:
   956                           
   957                           ; 1 bytes @ 0x10
   958  00003A                     	ds	20
   959                           tblptru	equ	0xFF8
   960                           tblptrh	equ	0xFF7
   961                           tblptrl	equ	0xFF6
   962                           tablat	equ	0xFF5
   963                           postinc0	equ	0xFEE
   964                           wreg	equ	0xFE8
   965                           postdec1	equ	0xFE5
   966                           fsr1l	equ	0xFE1
   967                           
   968 ;;
   969 ;;Main: autosize = 0, tempsize = 0, incstack = 0, save=0
   970 ;;
   971 ;; *************** function _main *****************
   972 ;; Defined at:
   973 ;;		line 103 in file "07_May_LedDisplayMain.c"
   974 ;; Parameters:    Size  Location     Type
   975 ;;		None
   976 ;; Auto vars:     Size  Location     Type
   977 ;;		None
   978 ;; Return value:  Size  Location     Type
   979 ;;                  1    wreg      void 
   980 ;; Registers used:
   981 ;;		wreg, fsr2l, fsr2h, status,2, status,0, prodl, prodh, cstack
   982 ;; Tracked objects:
   983 ;;		On entry : 0/0
   984 ;;		On exit  : 0/0
   985 ;;		Unchanged: 0/0
   986 ;; Data sizes:     COMRAM   BANK0   BANK1   BANK2   BANK3   BANK4   BANK5   BANK6   BANK7   BANK8   BANK9  BANK10  BANK1
      +1  BANK12  BANK13  BANK14  BANK15
   987 ;;      Params:         0       0       0       0       0       0       0       0       0       0       0       0       
      +0       0       0       0       0
   988 ;;      Locals:         0       0       0       0       0       0       0       0       0       0       0       0       
      +0       0       0       0       0
   989 ;;      Temps:          0       0       0       0       0       0       0       0       0       0       0       0       
      +0       0       0       0       0
   990 ;;      Totals:         0       0       0       0       0       0       0       0       0       0       0       0       
      +0       0       0       0       0
   991 ;;Total ram usage:        0 bytes
   992 ;; Hardware stack levels required when called:   14
   993 ;; This function calls:
   994 ;;		_Clear_Data
   995 ;;		_Delay_ms
   996 ;;		_Display_LED_Indication
   997 ;;		_InitSPI
   998 ;;		_RF_reset
   999 ;;		_SYSTEM_Initialize
  1000 ;;		_init_ZIGBEE_nonbeacon
  1001 ;;		_nonbeacon_PAN_coordinator_device
  1002 ;;		_pin_reset
  1003 ;;		_pin_wake
  1004 ;;		_set_PAN_ID
  1005 ;;		_set_TX_power
  1006 ;;		_set_WAKE_from_pin
  1007 ;;		_set_frame_format_filter
  1008 ;;		_set_long_address
  1009 ;;		_set_reception_mode
  1010 ;;		_set_short_address
  1011 ;; This function is called by:
  1012 ;;		Startup code after reset
  1013 ;; This function uses a non-reentrant model
  1014 ;;
  1015                           
  1016                           	psect	text0
  1017  001292                     __ptext0:
  1018                           	opt stack 0
  1019  001292                     _main:
  1020                           	opt stack 17
  1021                           
  1022                           ;07_May_LedDisplayMain.c: 104: Delay_ms(100);Delay_ms(100);
  1023                           
  1024                           ;incstack = 0
  1025  001292  0E00               	movlw	0
  1026  001294  0101               	movlb	1	; () banked
  1027  001296  6F2A               	movwf	(Delay_ms@time+1)& (0+255),b
  1028  001298  0E64               	movlw	100
  1029  00129A  6F29               	movwf	Delay_ms@time& (0+255),b
  1030  00129C  ECD3  F010         	call	_Delay_ms	;wreg free
  1031  0012A0  0E00               	movlw	0
  1032  0012A2  0101               	movlb	1	; () banked
  1033  0012A4  6F2A               	movwf	(Delay_ms@time+1)& (0+255),b
  1034  0012A6  0E64               	movlw	100
  1035  0012A8  6F29               	movwf	Delay_ms@time& (0+255),b
  1036  0012AA  ECD3  F010         	call	_Delay_ms	;wreg free
  1037                           
  1038                           ;07_May_LedDisplayMain.c: 105: Delay_ms(100);Delay_ms(100);
  1039  0012AE  0E00               	movlw	0
  1040  0012B0  0101               	movlb	1	; () banked
  1041  0012B2  6F2A               	movwf	(Delay_ms@time+1)& (0+255),b
  1042  0012B4  0E64               	movlw	100
  1043  0012B6  6F29               	movwf	Delay_ms@time& (0+255),b
  1044  0012B8  ECD3  F010         	call	_Delay_ms	;wreg free
  1045  0012BC  0E00               	movlw	0
  1046  0012BE  0101               	movlb	1	; () banked
  1047  0012C0  6F2A               	movwf	(Delay_ms@time+1)& (0+255),b
  1048  0012C2  0E64               	movlw	100
  1049  0012C4  6F29               	movwf	Delay_ms@time& (0+255),b
  1050  0012C6  ECD3  F010         	call	_Delay_ms	;wreg free
  1051                           
  1052                           ;07_May_LedDisplayMain.c: 106: SYSTEM_Initialize();
  1053  0012CA  ECFC  F010         	call	_SYSTEM_Initialize	;wreg free
  1054                           
  1055                           ;07_May_LedDisplayMain.c: 107: Delay_ms(10);
  1056  0012CE  0E00               	movlw	0
  1057  0012D0  0101               	movlb	1	; () banked
  1058  0012D2  6F2A               	movwf	(Delay_ms@time+1)& (0+255),b
  1059  0012D4  0E0A               	movlw	10
  1060  0012D6  6F29               	movwf	Delay_ms@time& (0+255),b
  1061  0012D8  ECD3  F010         	call	_Delay_ms	;wreg free
  1062                           
  1063                           ;07_May_LedDisplayMain.c: 108: InitSPI();
  1064  0012DC  EC3D  F010         	call	_InitSPI	;wreg free
  1065                           
  1066                           ;07_May_LedDisplayMain.c: 109: Delay_ms(10);
  1067  0012E0  0E00               	movlw	0
  1068  0012E2  0101               	movlb	1	; () banked
  1069  0012E4  6F2A               	movwf	(Delay_ms@time+1)& (0+255),b
  1070  0012E6  0E0A               	movlw	10
  1071  0012E8  6F29               	movwf	Delay_ms@time& (0+255),b
  1072  0012EA  ECD3  F010         	call	_Delay_ms	;wreg free
  1073                           
  1074                           ;07_May_LedDisplayMain.c: 110: pin_reset();
  1075  0012EE  EC85  F010         	call	_pin_reset	;wreg free
  1076                           
  1077                           ;07_May_LedDisplayMain.c: 111: RF_reset();
  1078  0012F2  ECF1  F00F         	call	_RF_reset	;wreg free
  1079                           
  1080                           ;07_May_LedDisplayMain.c: 112: set_WAKE_from_pin();
  1081  0012F6  ECC5  F010         	call	_set_WAKE_from_pin	;wreg free
  1082                           
  1083                           ;07_May_LedDisplayMain.c: 114: set_long_address(ADDRESS_long_2);
  1084  0012FA  0EEE               	movlw	low _ADDRESS_long_2
  1085  0012FC  0101               	movlb	1	; () banked
  1086  0012FE  6F2D               	movwf	set_long_address@address& (0+255),b
  1087  001300  0E00               	movlw	high _ADDRESS_long_2
  1088  001302  6F2E               	movwf	(set_long_address@address+1)& (0+255),b
  1089  001304  EC7A  F00F         	call	_set_long_address	;wreg free
  1090                           
  1091                           ;07_May_LedDisplayMain.c: 115: set_short_address(ADDRESS_short_2);
  1092  001308  0EF8               	movlw	low _ADDRESS_short_2
  1093  00130A  0101               	movlb	1	; () banked
  1094  00130C  6F2D               	movwf	set_short_address@address& (0+255),b
  1095  00130E  0E00               	movlw	high _ADDRESS_short_2
  1096  001310  6F2E               	movwf	(set_short_address@address+1)& (0+255),b
  1097  001312  ECAE  F00F         	call	_set_short_address	;wreg free
  1098                           
  1099                           ;07_May_LedDisplayMain.c: 116: set_PAN_ID(PAN_ID_2);
  1100  001316  0EF6               	movlw	low _PAN_ID_2
  1101  001318  0101               	movlb	1	; () banked
  1102  00131A  6F2D               	movwf	set_PAN_ID@address& (0+255),b
  1103  00131C  0E00               	movlw	high _PAN_ID_2
  1104  00131E  6F2E               	movwf	(set_PAN_ID@address+1)& (0+255),b
  1105  001320  ECC5  F00F         	call	_set_PAN_ID	;wreg free
  1106                           
  1107                           ;07_May_LedDisplayMain.c: 118: init_ZIGBEE_nonbeacon();
  1108  001324  EC19  F010         	call	_init_ZIGBEE_nonbeacon	;wreg free
  1109                           
  1110                           ;07_May_LedDisplayMain.c: 120: nonbeacon_PAN_coordinator_device();
  1111  001328  EC21  F00F         	call	_nonbeacon_PAN_coordinator_device	;wreg free
  1112                           
  1113                           ;07_May_LedDisplayMain.c: 121: set_TX_power(31);
  1114  00132C  0E1F               	movlw	31
  1115  00132E  EC9E  F00E         	call	_set_TX_power
  1116                           
  1117                           ;07_May_LedDisplayMain.c: 122: set_frame_format_filter(1);
  1118  001332  0E01               	movlw	1
  1119  001334  EC4E  F00D         	call	_set_frame_format_filter
  1120                           
  1121                           ;07_May_LedDisplayMain.c: 123: set_reception_mode(1);
  1122  001338  0E01               	movlw	1
  1123  00133A  EC97  F00D         	call	_set_reception_mode
  1124                           
  1125                           ;07_May_LedDisplayMain.c: 124: pin_wake();
  1126  00133E  EC4B  F011         	call	_pin_wake	;wreg free
  1127                           
  1128                           ;07_May_LedDisplayMain.c: 125: Count1=1;
  1129  001342  0E01               	movlw	1
  1130  001344  0100               	movlb	0	; () banked
  1131  001346  6FB1               	movwf	_Count1& (0+255),b
  1132                           
  1133                           ; BSR set to: 0
  1134                           ;07_May_LedDisplayMain.c: 126: Count2=1;
  1135  001348  0E01               	movlw	1
  1136  00134A  6FB0               	movwf	_Count2& (0+255),b
  1137                           
  1138                           ; BSR set to: 0
  1139                           ;07_May_LedDisplayMain.c: 127: Delay_ms(10);
  1140  00134C  0E00               	movlw	0
  1141  00134E  0101               	movlb	1	; () banked
  1142  001350  6F2A               	movwf	(Delay_ms@time+1)& (0+255),b
  1143  001352  0E0A               	movlw	10
  1144  001354  6F29               	movwf	Delay_ms@time& (0+255),b
  1145  001356  ECD3  F010         	call	_Delay_ms	;wreg free
  1146                           
  1147                           ;07_May_LedDisplayMain.c: 128: ID_SET=1;
  1148  00135A  0E01               	movlw	1
  1149  00135C  0100               	movlb	0	; () banked
  1150  00135E  6FAE               	movwf	_ID_SET& (0+255),b
  1151                           
  1152                           ; BSR set to: 0
  1153                           ;07_May_LedDisplayMain.c: 129: (INTCONbits.GIEH = 1);
  1154  001360  8EF2               	bsf	intcon,7,c	;volatile
  1155                           
  1156                           ; BSR set to: 0
  1157                           ;07_May_LedDisplayMain.c: 130: (INTCONbits.GIEL = 1);
  1158  001362  8CF2               	bsf	intcon,6,c	;volatile
  1159                           
  1160                           ; BSR set to: 0
  1161                           ;07_May_LedDisplayMain.c: 131: (INTCONbits.PEIE = 1);
  1162  001364  8CF2               	bsf	intcon,6,c	;volatile
  1163  001366                     
  1164                           ;07_May_LedDisplayMain.c: 134: if(( CRC == Rv_CRC ) && (ZigBee_Receive_Buffer[0]=='*') &
      +                          &(ZigBee_Receive_Buffer[2] == 1) ){
  1165                           
  1166                           ; BSR set to: 0
  1167  001366  0100               	movlb	0	; () banked
  1168  001368  519D               	movf	_Rv_CRC& (0+255),w,b
  1169  00136A  1999               	xorwf	_CRC& (0+255),w,b
  1170  00136C  E116               	bnz	l862
  1171  00136E  519E               	movf	(_Rv_CRC+1)& (0+255),w,b
  1172  001370  199A               	xorwf	(_CRC+1)& (0+255),w,b
  1173  001372  A4D8               	btfss	status,2,c
  1174  001374  D012               	goto	l862
  1175                           
  1176                           ; BSR set to: 0
  1177  001376  0E2A               	movlw	42
  1178  001378  1972               	xorwf	_ZigBee_Receive_Buffer& (0+255),w,b
  1179  00137A  A4D8               	btfss	status,2,c
  1180  00137C  D00E               	goto	l862
  1181                           
  1182                           ; BSR set to: 0
  1183  00137E  0574               	decf	(_ZigBee_Receive_Buffer+2)& (0+255),w,b
  1184  001380  A4D8               	btfss	status,2,c
  1185  001382  D00B               	goto	l862
  1186                           
  1187                           ; BSR set to: 0
  1188                           ;07_May_LedDisplayMain.c: 135: Clear_Data();
  1189  001384  EC5F  F00F         	call	_Clear_Data	;wreg free
  1190                           
  1191                           ;07_May_LedDisplayMain.c: 136: Device_ID=ZigBee_Receive_Buffer[1];
  1192  001388  C073  F0AF         	movff	_ZigBee_Receive_Buffer+1,_Device_ID
  1193                           
  1194                           ;07_May_LedDisplayMain.c: 137: ZigBee_Receive_Buffer[0]=0x00;
  1195  00138C  0E00               	movlw	0
  1196  00138E  0100               	movlb	0	; () banked
  1197  001390  6F72               	movwf	_ZigBee_Receive_Buffer& (0+255),b
  1198                           
  1199                           ; BSR set to: 0
  1200                           ;07_May_LedDisplayMain.c: 138: F_Receive=1;
  1201  001392  0E01               	movlw	1
  1202  001394  6FA2               	movwf	_F_Receive& (0+255),b
  1203                           
  1204                           ; BSR set to: 0
  1205                           ;07_May_LedDisplayMain.c: 139: PORTAbits.RA1=0;
  1206  001396  9280               	bcf	3968,1,c	;volatile
  1207                           
  1208                           ;07_May_LedDisplayMain.c: 141: }
  1209  001398  D001               	goto	l863
  1210  00139A                     l862:
  1211                           
  1212                           ; BSR set to: 0
  1213                           ;07_May_LedDisplayMain.c: 142: else{
  1214                           ;07_May_LedDisplayMain.c: 143: PORTAbits.RA1=1;
  1215  00139A  8280               	bsf	3968,1,c	;volatile
  1216  00139C                     l863:
  1217                           
  1218                           ; BSR set to: 0
  1219                           ;07_May_LedDisplayMain.c: 144: }
  1220                           ;07_May_LedDisplayMain.c: 145: if(F_Receive == 1){
  1221                           
  1222                           ; BSR set to: 0
  1223  00139C  05A2               	decf	_F_Receive& (0+255),w,b
  1224  00139E  A4D8               	btfss	status,2,c
  1225  0013A0  D068               	goto	l864
  1226                           
  1227                           ; BSR set to: 0
  1228                           ;07_May_LedDisplayMain.c: 146: F_Receive=0;
  1229  0013A2  0E00               	movlw	0
  1230  0013A4  6FA2               	movwf	_F_Receive& (0+255),b
  1231                           
  1232                           ; BSR set to: 0
  1233                           ;07_May_LedDisplayMain.c: 147: Display_LED_Indication(Device_ID);
  1234  0013A6  51AF               	movf	_Device_ID& (0+255),w,b
  1235  0013A8  ECA7  F00C         	call	_Display_LED_Indication
  1236                           
  1237                           ;07_May_LedDisplayMain.c: 148: Delay_ms(100);Delay_ms(100);Delay_ms(100);Delay_ms(100);D
      +                          elay_ms(100);Delay_ms(100);Delay_ms(100);
  1238  0013AC  0E00               	movlw	0
  1239  0013AE  0101               	movlb	1	; () banked
  1240  0013B0  6F2A               	movwf	(Delay_ms@time+1)& (0+255),b
  1241  0013B2  0E64               	movlw	100
  1242  0013B4  6F29               	movwf	Delay_ms@time& (0+255),b
  1243  0013B6  ECD3  F010         	call	_Delay_ms	;wreg free
  1244  0013BA  0E00               	movlw	0
  1245  0013BC  0101               	movlb	1	; () banked
  1246  0013BE  6F2A               	movwf	(Delay_ms@time+1)& (0+255),b
  1247  0013C0  0E64               	movlw	100
  1248  0013C2  6F29               	movwf	Delay_ms@time& (0+255),b
  1249  0013C4  ECD3  F010         	call	_Delay_ms	;wreg free
  1250  0013C8  0E00               	movlw	0
  1251  0013CA  0101               	movlb	1	; () banked
  1252  0013CC  6F2A               	movwf	(Delay_ms@time+1)& (0+255),b
  1253  0013CE  0E64               	movlw	100
  1254  0013D0  6F29               	movwf	Delay_ms@time& (0+255),b
  1255  0013D2  ECD3  F010         	call	_Delay_ms	;wreg free
  1256  0013D6  0E00               	movlw	0
  1257  0013D8  0101               	movlb	1	; () banked
  1258  0013DA  6F2A               	movwf	(Delay_ms@time+1)& (0+255),b
  1259  0013DC  0E64               	movlw	100
  1260  0013DE  6F29               	movwf	Delay_ms@time& (0+255),b
  1261  0013E0  ECD3  F010         	call	_Delay_ms	;wreg free
  1262  0013E4  0E00               	movlw	0
  1263  0013E6  0101               	movlb	1	; () banked
  1264  0013E8  6F2A               	movwf	(Delay_ms@time+1)& (0+255),b
  1265  0013EA  0E64               	movlw	100
  1266  0013EC  6F29               	movwf	Delay_ms@time& (0+255),b
  1267  0013EE  ECD3  F010         	call	_Delay_ms	;wreg free
  1268  0013F2  0E00               	movlw	0
  1269  0013F4  0101               	movlb	1	; () banked
  1270  0013F6  6F2A               	movwf	(Delay_ms@time+1)& (0+255),b
  1271  0013F8  0E64               	movlw	100
  1272  0013FA  6F29               	movwf	Delay_ms@time& (0+255),b
  1273  0013FC  ECD3  F010         	call	_Delay_ms	;wreg free
  1274  001400  0E00               	movlw	0
  1275  001402  0101               	movlb	1	; () banked
  1276  001404  6F2A               	movwf	(Delay_ms@time+1)& (0+255),b
  1277  001406  0E64               	movlw	100
  1278  001408  6F29               	movwf	Delay_ms@time& (0+255),b
  1279  00140A  ECD3  F010         	call	_Delay_ms	;wreg free
  1280                           
  1281                           ;07_May_LedDisplayMain.c: 149: Delay_ms(100);Delay_ms(100);Delay_ms(100);Delay_ms(100);D
      +                          elay_ms(100);Delay_ms(100);Delay_ms(100);
  1282  00140E  0E00               	movlw	0
  1283  001410  0101               	movlb	1	; () banked
  1284  001412  6F2A               	movwf	(Delay_ms@time+1)& (0+255),b
  1285  001414  0E64               	movlw	100
  1286  001416  6F29               	movwf	Delay_ms@time& (0+255),b
  1287  001418  ECD3  F010         	call	_Delay_ms	;wreg free
  1288  00141C  0E00               	movlw	0
  1289  00141E  0101               	movlb	1	; () banked
  1290  001420  6F2A               	movwf	(Delay_ms@time+1)& (0+255),b
  1291  001422  0E64               	movlw	100
  1292  001424  6F29               	movwf	Delay_ms@time& (0+255),b
  1293  001426  ECD3  F010         	call	_Delay_ms	;wreg free
  1294  00142A  0E00               	movlw	0
  1295  00142C  0101               	movlb	1	; () banked
  1296  00142E  6F2A               	movwf	(Delay_ms@time+1)& (0+255),b
  1297  001430  0E64               	movlw	100
  1298  001432  6F29               	movwf	Delay_ms@time& (0+255),b
  1299  001434  ECD3  F010         	call	_Delay_ms	;wreg free
  1300  001438  0E00               	movlw	0
  1301  00143A  0101               	movlb	1	; () banked
  1302  00143C  6F2A               	movwf	(Delay_ms@time+1)& (0+255),b
  1303  00143E  0E64               	movlw	100
  1304  001440  6F29               	movwf	Delay_ms@time& (0+255),b
  1305  001442  ECD3  F010         	call	_Delay_ms	;wreg free
  1306  001446  0E00               	movlw	0
  1307  001448  0101               	movlb	1	; () banked
  1308  00144A  6F2A               	movwf	(Delay_ms@time+1)& (0+255),b
  1309  00144C  0E64               	movlw	100
  1310  00144E  6F29               	movwf	Delay_ms@time& (0+255),b
  1311  001450  ECD3  F010         	call	_Delay_ms	;wreg free
  1312  001454  0E00               	movlw	0
  1313  001456  0101               	movlb	1	; () banked
  1314  001458  6F2A               	movwf	(Delay_ms@time+1)& (0+255),b
  1315  00145A  0E64               	movlw	100
  1316  00145C  6F29               	movwf	Delay_ms@time& (0+255),b
  1317  00145E  ECD3  F010         	call	_Delay_ms	;wreg free
  1318  001462  0E00               	movlw	0
  1319  001464  0101               	movlb	1	; () banked
  1320  001466  6F2A               	movwf	(Delay_ms@time+1)& (0+255),b
  1321  001468  0E64               	movlw	100
  1322  00146A  6F29               	movwf	Delay_ms@time& (0+255),b
  1323  00146C  ECD3  F010         	call	_Delay_ms	;wreg free
  1324                           
  1325                           ;07_May_LedDisplayMain.c: 150: }
  1326  001470  D77A               	goto	l861
  1327  001472                     l864:
  1328                           
  1329                           ; BSR set to: 0
  1330                           ;07_May_LedDisplayMain.c: 151: else{
  1331                           ;07_May_LedDisplayMain.c: 152: PORTFbits.RF3=0;PORTFbits.RF4=0;PORTFbits.RF5=0;PORTFbits
      +                          .RF6=0;PORTFbits.RF7=0;
  1332  001472  9685               	bcf	3973,3,c	;volatile
  1333  001474  9885               	bcf	3973,4,c	;volatile
  1334  001476  9A85               	bcf	3973,5,c	;volatile
  1335  001478  9C85               	bcf	3973,6,c	;volatile
  1336  00147A  9E85               	bcf	3973,7,c	;volatile
  1337                           
  1338                           ;07_May_LedDisplayMain.c: 153: PORTDbits.RD0=0;PORTDbits.RD1=0;PORTDbits.RD2=0;PORTDbits
      +                          .RD3=0;PORTDbits.RD4=0;PORTDbits.RD5=0;PORTDbits.RD6=0;
  1339  00147C  9083               	bcf	3971,0,c	;volatile
  1340  00147E  9283               	bcf	3971,1,c	;volatile
  1341  001480  9483               	bcf	3971,2,c	;volatile
  1342  001482  9683               	bcf	3971,3,c	;volatile
  1343  001484  9883               	bcf	3971,4,c	;volatile
  1344  001486  9A83               	bcf	3971,5,c	;volatile
  1345  001488  9C83               	bcf	3971,6,c	;volatile
  1346                           
  1347                           ; BSR set to: 0
  1348                           
  1349                           ; BSR set to: 0
  1350  00148A  D76D               	goto	l861
  1351  00148C                     __end_of_main:
  1352                           	opt stack 0
  1353                           tblptru	equ	0xFF8
  1354                           tblptrh	equ	0xFF7
  1355                           tblptrl	equ	0xFF6
  1356                           tablat	equ	0xFF5
  1357                           intcon	equ	0xFF2
  1358                           postinc0	equ	0xFEE
  1359                           wreg	equ	0xFE8
  1360                           postdec1	equ	0xFE5
  1361                           fsr1l	equ	0xFE1
  1362                           status	equ	0xFD8
  1363                           
  1364 ;; *************** function _set_short_address *****************
  1365 ;; Defined at:
  1366 ;;		line 67 in file "zigbee.c"
  1367 ;; Parameters:    Size  Location     Type
  1368 ;;  address         2    4[BANK1 ] PTR unsigned char 
  1369 ;;		 -> ADDRESS_short_2(2), 
  1370 ;; Auto vars:     Size  Location     Type
  1371 ;;		None
  1372 ;; Return value:  Size  Location     Type
  1373 ;;                  1    wreg      void 
  1374 ;; Registers used:
  1375 ;;		wreg, fsr2l, fsr2h, status,2, status,0, cstack
  1376 ;; Tracked objects:
  1377 ;;		On entry : 0/0
  1378 ;;		On exit  : 0/0
  1379 ;;		Unchanged: 0/0
  1380 ;; Data sizes:     COMRAM   BANK0   BANK1   BANK2   BANK3   BANK4   BANK5   BANK6   BANK7   BANK8   BANK9  BANK10  BANK1
      +1  BANK12  BANK13  BANK14  BANK15
  1381 ;;      Params:         0       0       2       0       0       0       0       0       0       0       0       0       
      +0       0       0       0       0
  1382 ;;      Locals:         0       0       0       0       0       0       0       0       0       0       0       0       
      +0       0       0       0       0
  1383 ;;      Temps:          0       0       0       0       0       0       0       0       0       0       0       0       
      +0       0       0       0       0
  1384 ;;      Totals:         0       0       2       0       0       0       0       0       0       0       0       0       
      +0       0       0       0       0
  1385 ;;Total ram usage:        2 bytes
  1386 ;; Hardware stack levels used:    1
  1387 ;; Hardware stack levels required when called:   11
  1388 ;; This function calls:
  1389 ;;		_write_ZIGBEE_short
  1390 ;; This function is called by:
  1391 ;;		_main
  1392 ;; This function uses a non-reentrant model
  1393 ;;
  1394                           
  1395                           	psect	text1
  1396  001F5C                     __ptext1:
  1397                           	opt stack 0
  1398  001F5C                     _set_short_address:
  1399                           	opt stack 19
  1400                           
  1401                           ;zigbee.c: 68: write_ZIGBEE_short(0x03, address[0]);
  1402                           
  1403                           ; BSR set to: 0
  1404                           ;incstack = 0
  1405  001F5C  C12D  FFD9         	movff	set_short_address@address,fsr2l
  1406  001F60  C12E  FFDA         	movff	set_short_address@address+1,fsr2h
  1407  001F64  50DF               	movf	indf2,w,c
  1408  001F66  0101               	movlb	1	; () banked
  1409  001F68  6F2B               	movwf	write_ZIGBEE_short@data_r& (0+255),b
  1410  001F6A  0E03               	movlw	3
  1411  001F6C  EC2B  F010         	call	_write_ZIGBEE_short
  1412                           
  1413                           ;zigbee.c: 69: write_ZIGBEE_short(0x04, address[1]);
  1414  001F70  0101               	movlb	1	; () banked
  1415  001F72  EE20 F001          	lfsr	2,1
  1416  001F76  512D               	movf	set_short_address@address& (0+255),w,b
  1417  001F78  26D9               	addwf	fsr2l,f,c
  1418  001F7A  512E               	movf	(set_short_address@address+1)& (0+255),w,b
  1419  001F7C  22DA               	addwfc	fsr2h,f,c
  1420  001F7E  50DF               	movf	indf2,w,c
  1421  001F80  6F2B               	movwf	write_ZIGBEE_short@data_r& (0+255),b
  1422  001F82  0E04               	movlw	4
  1423  001F84  EC2B  F010         	call	_write_ZIGBEE_short
  1424  001F88  0012               	return		;funcret
  1425  001F8A                     __end_of_set_short_address:
  1426                           	opt stack 0
  1427                           tblptru	equ	0xFF8
  1428                           tblptrh	equ	0xFF7
  1429                           tblptrl	equ	0xFF6
  1430                           tablat	equ	0xFF5
  1431                           intcon	equ	0xFF2
  1432                           postinc0	equ	0xFEE
  1433                           wreg	equ	0xFE8
  1434                           postdec1	equ	0xFE5
  1435                           fsr1l	equ	0xFE1
  1436                           indf2	equ	0xFDF
  1437                           fsr2h	equ	0xFDA
  1438                           fsr2l	equ	0xFD9
  1439                           status	equ	0xFD8
  1440                           
  1441 ;; *************** function _set_reception_mode *****************
  1442 ;; Defined at:
  1443 ;;		line 303 in file "zigbee.c"
  1444 ;; Parameters:    Size  Location     Type
  1445 ;;  r_mode          1    wreg     unsigned char 
  1446 ;; Auto vars:     Size  Location     Type
  1447 ;;  r_mode          1    4[BANK1 ] unsigned char 
  1448 ;;  temp            1    5[BANK1 ] unsigned char 
  1449 ;; Return value:  Size  Location     Type
  1450 ;;                  1    wreg      void 
  1451 ;; Registers used:
  1452 ;;		wreg, status,2, status,0, cstack
  1453 ;; Tracked objects:
  1454 ;;		On entry : 0/0
  1455 ;;		On exit  : 0/0
  1456 ;;		Unchanged: 0/0
  1457 ;; Data sizes:     COMRAM   BANK0   BANK1   BANK2   BANK3   BANK4   BANK5   BANK6   BANK7   BANK8   BANK9  BANK10  BANK1
      +1  BANK12  BANK13  BANK14  BANK15
  1458 ;;      Params:         0       0       0       0       0       0       0       0       0       0       0       0       
      +0       0       0       0       0
  1459 ;;      Locals:         0       0       2       0       0       0       0       0       0       0       0       0       
      +0       0       0       0       0
  1460 ;;      Temps:          0       0       0       0       0       0       0       0       0       0       0       0       
      +0       0       0       0       0
  1461 ;;      Totals:         0       0       2       0       0       0       0       0       0       0       0       0       
      +0       0       0       0       0
  1462 ;;Total ram usage:        2 bytes
  1463 ;; Hardware stack levels used:    1
  1464 ;; Hardware stack levels required when called:   11
  1465 ;; This function calls:
  1466 ;;		_write_ZIGBEE_short
  1467 ;; This function is called by:
  1468 ;;		_main
  1469 ;; This function uses a non-reentrant model
  1470 ;;
  1471                           
  1472                           	psect	text2
  1473  001B2E                     __ptext2:
  1474                           	opt stack 0
  1475  001B2E                     _set_reception_mode:
  1476                           	opt stack 19
  1477                           
  1478                           ;incstack = 0
  1479                           ;set_reception_mode@r_mode stored from wreg
  1480  001B2E  0101               	movlb	1	; () banked
  1481  001B30  6F2D               	movwf	set_reception_mode@r_mode& (0+255),b
  1482                           
  1483                           ;zigbee.c: 305: unsigned char temp=0;
  1484  001B32  0E00               	movlw	0
  1485  001B34  0101               	movlb	1	; () banked
  1486  001B36  6F2E               	movwf	set_reception_mode@temp& (0+255),b
  1487                           
  1488                           ;zigbee.c: 306: switch(r_mode)
  1489  001B38  D026               	goto	l484
  1490  001B3A                     
  1491                           ; BSR set to: 1
  1492                           ;zigbee.c: 309: {
  1493                           ;zigbee.c: 310: temp=0;
  1494                           
  1495                           ; BSR set to: 1
  1496  001B3A  0E00               	movlw	0
  1497  001B3C  6F2E               	movwf	set_reception_mode@temp& (0+255),b
  1498                           
  1499                           ;zigbee.c: 311: temp = temp & (!0x03);
  1500  001B3E  0E00               	movlw	0
  1501  001B40  6F2E               	movwf	set_reception_mode@temp& (0+255),b
  1502                           
  1503                           ; BSR set to: 1
  1504                           ;zigbee.c: 312: write_ZIGBEE_short(0x00, temp);
  1505  001B42  C12E  F12B         	movff	set_reception_mode@temp,write_ZIGBEE_short@data_r
  1506  001B46  0E00               	movlw	0
  1507  001B48  EC2B  F010         	call	_write_ZIGBEE_short
  1508                           
  1509                           ;zigbee.c: 313: }
  1510                           ;zigbee.c: 314: break;
  1511  001B4C  0012               	return	
  1512  001B4E                     
  1513                           ;zigbee.c: 317: {
  1514                           ;zigbee.c: 318: temp=0;
  1515  001B4E  0E00               	movlw	0
  1516  001B50  0101               	movlb	1	; () banked
  1517  001B52  6F2E               	movwf	set_reception_mode@temp& (0+255),b
  1518                           
  1519                           ;zigbee.c: 319: temp = temp & (!0x01);
  1520  001B54  0E00               	movlw	0
  1521  001B56  6F2E               	movwf	set_reception_mode@temp& (0+255),b
  1522                           
  1523                           ; BSR set to: 1
  1524                           ;zigbee.c: 320: temp = temp | 0x02;
  1525  001B58  512E               	movf	set_reception_mode@temp& (0+255),w,b
  1526  001B5A  0902               	iorlw	2
  1527  001B5C  6F2E               	movwf	set_reception_mode@temp& (0+255),b
  1528                           
  1529                           ; BSR set to: 1
  1530                           ;zigbee.c: 321: write_ZIGBEE_short(0x00, temp);
  1531  001B5E  C12E  F12B         	movff	set_reception_mode@temp,write_ZIGBEE_short@data_r
  1532  001B62  0E00               	movlw	0
  1533  001B64  EC2B  F010         	call	_write_ZIGBEE_short
  1534                           
  1535                           ;zigbee.c: 322: }
  1536                           ;zigbee.c: 323: break;
  1537  001B68  0012               	return	
  1538  001B6A                     
  1539                           ;zigbee.c: 325: {
  1540                           ;zigbee.c: 326: temp=0;
  1541  001B6A  0E00               	movlw	0
  1542  001B6C  0101               	movlb	1	; () banked
  1543  001B6E  6F2E               	movwf	set_reception_mode@temp& (0+255),b
  1544                           
  1545                           ;zigbee.c: 327: temp = temp & (!0x02);
  1546  001B70  0E00               	movlw	0
  1547  001B72  6F2E               	movwf	set_reception_mode@temp& (0+255),b
  1548                           
  1549                           ; BSR set to: 1
  1550                           ;zigbee.c: 328: temp = temp | 0x01;
  1551  001B74  512E               	movf	set_reception_mode@temp& (0+255),w,b
  1552  001B76  0901               	iorlw	1
  1553  001B78  6F2E               	movwf	set_reception_mode@temp& (0+255),b
  1554                           
  1555                           ; BSR set to: 1
  1556                           ;zigbee.c: 329: write_ZIGBEE_short(0x00, temp);
  1557  001B7A  C12E  F12B         	movff	set_reception_mode@temp,write_ZIGBEE_short@data_r
  1558  001B7E  0E00               	movlw	0
  1559  001B80  EC2B  F010         	call	_write_ZIGBEE_short
  1560                           
  1561                           ;zigbee.c: 332: }
  1562                           
  1563                           ;zigbee.c: 330: }
  1564                           ;zigbee.c: 331: break;
  1565  001B84  0012               	return	
  1566  001B86                     l484:
  1567  001B86  0101               	movlb	1	; () banked
  1568  001B88  512D               	movf	set_reception_mode@r_mode& (0+255),w,b
  1569                           
  1570                           ; Switch size 1, requested type "space"
  1571                           ; Number of cases is 3, Range of values is 1 to 3
  1572                           ; switch strategies available:
  1573                           ; Name         Instructions Cycles
  1574                           ; simple_byte           10     6 (average)
  1575                           ;	Chosen strategy is simple_byte
  1576  001B8A  0A01               	xorlw	1	; case 1
  1577  001B8C  B4D8               	btfsc	status,2,c
  1578  001B8E  D7D5               	goto	l485
  1579  001B90  0A03               	xorlw	3	; case 2
  1580  001B92  B4D8               	btfsc	status,2,c
  1581  001B94  D7DC               	goto	l487
  1582  001B96  0A01               	xorlw	1	; case 3
  1583  001B98  A4D8               	btfss	status,2,c
  1584  001B9A  0012               	return	
  1585  001B9C  D7E6               	goto	l488
  1586  001B9E                     __end_of_set_reception_mode:
  1587                           	opt stack 0
  1588                           tblptru	equ	0xFF8
  1589                           tblptrh	equ	0xFF7
  1590                           tblptrl	equ	0xFF6
  1591                           tablat	equ	0xFF5
  1592                           intcon	equ	0xFF2
  1593                           postinc0	equ	0xFEE
  1594                           wreg	equ	0xFE8
  1595                           postdec1	equ	0xFE5
  1596                           fsr1l	equ	0xFE1
  1597                           indf2	equ	0xFDF
  1598                           fsr2h	equ	0xFDA
  1599                           fsr2l	equ	0xFD9
  1600                           status	equ	0xFD8
  1601                           
  1602 ;; *************** function _set_long_address *****************
  1603 ;; Defined at:
  1604 ;;		line 62 in file "zigbee.c"
  1605 ;; Parameters:    Size  Location     Type
  1606 ;;  address         2    4[BANK1 ] PTR unsigned char 
  1607 ;;		 -> ADDRESS_long_2(8), 
  1608 ;; Auto vars:     Size  Location     Type
  1609 ;;  i               1    6[BANK1 ] unsigned char 
  1610 ;; Return value:  Size  Location     Type
  1611 ;;                  1    wreg      void 
  1612 ;; Registers used:
  1613 ;;		wreg, fsr2l, fsr2h, status,2, status,0, prodl, prodh, cstack
  1614 ;; Tracked objects:
  1615 ;;		On entry : 0/0
  1616 ;;		On exit  : 0/0
  1617 ;;		Unchanged: 0/0
  1618 ;; Data sizes:     COMRAM   BANK0   BANK1   BANK2   BANK3   BANK4   BANK5   BANK6   BANK7   BANK8   BANK9  BANK10  BANK1
      +1  BANK12  BANK13  BANK14  BANK15
  1619 ;;      Params:         0       0       2       0       0       0       0       0       0       0       0       0       
      +0       0       0       0       0
  1620 ;;      Locals:         0       0       1       0       0       0       0       0       0       0       0       0       
      +0       0       0       0       0
  1621 ;;      Temps:          0       0       0       0       0       0       0       0       0       0       0       0       
      +0       0       0       0       0
  1622 ;;      Totals:         0       0       3       0       0       0       0       0       0       0       0       0       
      +0       0       0       0       0
  1623 ;;Total ram usage:        3 bytes
  1624 ;; Hardware stack levels used:    1
  1625 ;; Hardware stack levels required when called:   11
  1626 ;; This function calls:
  1627 ;;		_write_ZIGBEE_short
  1628 ;; This function is called by:
  1629 ;;		_main
  1630 ;; This function uses a non-reentrant model
  1631 ;;
  1632                           
  1633                           	psect	text3
  1634  001EF4                     __ptext3:
  1635                           	opt stack 0
  1636  001EF4                     _set_long_address:
  1637                           	opt stack 19
  1638                           
  1639                           ;zigbee.c: 63: unsigned char i = 0;
  1640                           
  1641                           ;incstack = 0
  1642  001EF4  0E00               	movlw	0
  1643  001EF6  0101               	movlb	1	; () banked
  1644  001EF8  6F2F               	movwf	set_long_address@i& (0+255),b
  1645                           
  1646                           ;zigbee.c: 64: for(i = 0; i < 8; i++)
  1647  001EFA  0E00               	movlw	0
  1648  001EFC  6F2F               	movwf	set_long_address@i& (0+255),b
  1649  001EFE                     l3508:
  1650                           
  1651                           ; BSR set to: 1
  1652  001EFE  0E07               	movlw	7
  1653  001F00  652F               	cpfsgt	set_long_address@i& (0+255),b
  1654  001F02  D001               	goto	l403
  1655  001F04  0012               	return	
  1656  001F06                     l403:
  1657                           
  1658                           ; BSR set to: 1
  1659                           ;zigbee.c: 65: write_ZIGBEE_short(0x05 + i, address[i]);
  1660                           
  1661                           ; BSR set to: 1
  1662  001F06  512F               	movf	set_long_address@i& (0+255),w,b
  1663  001F08  0D01               	mullw	1
  1664  001F0A  50F3               	movf	prodl,w,c
  1665  001F0C  252D               	addwf	set_long_address@address& (0+255),w,b
  1666  001F0E  6ED9               	movwf	fsr2l,c
  1667  001F10  50F4               	movf	prodh,w,c
  1668  001F12  212E               	addwfc	(set_long_address@address+1)& (0+255),w,b
  1669  001F14  6EDA               	movwf	fsr2h,c
  1670  001F16  50DF               	movf	indf2,w,c
  1671  001F18  6F2B               	movwf	write_ZIGBEE_short@data_r& (0+255),b
  1672  001F1A  512F               	movf	set_long_address@i& (0+255),w,b
  1673  001F1C  0F05               	addlw	5
  1674  001F1E  EC2B  F010         	call	_write_ZIGBEE_short
  1675  001F22  0101               	movlb	1	; () banked
  1676  001F24  2B2F               	incf	set_long_address@i& (0+255),f,b
  1677  001F26  D7EB               	goto	l3508
  1678  001F28                     __end_of_set_long_address:
  1679                           	opt stack 0
  1680                           tblptru	equ	0xFF8
  1681                           tblptrh	equ	0xFF7
  1682                           tblptrl	equ	0xFF6
  1683                           tablat	equ	0xFF5
  1684                           prodh	equ	0xFF4
  1685                           prodl	equ	0xFF3
  1686                           intcon	equ	0xFF2
  1687                           postinc0	equ	0xFEE
  1688                           wreg	equ	0xFE8
  1689                           postdec1	equ	0xFE5
  1690                           fsr1l	equ	0xFE1
  1691                           indf2	equ	0xFDF
  1692                           fsr2h	equ	0xFDA
  1693                           fsr2l	equ	0xFD9
  1694                           status	equ	0xFD8
  1695                           
  1696 ;; *************** function _set_frame_format_filter *****************
  1697 ;; Defined at:
  1698 ;;		line 262 in file "zigbee.c"
  1699 ;; Parameters:    Size  Location     Type
  1700 ;;  fff_mode        1    wreg     unsigned char 
  1701 ;; Auto vars:     Size  Location     Type
  1702 ;;  fff_mode        1    4[BANK1 ] unsigned char 
  1703 ;;  temp            1    5[BANK1 ] unsigned char 
  1704 ;; Return value:  Size  Location     Type
  1705 ;;                  1    wreg      void 
  1706 ;; Registers used:
  1707 ;;		wreg, status,2, status,0, cstack
  1708 ;; Tracked objects:
  1709 ;;		On entry : 0/0
  1710 ;;		On exit  : 0/0
  1711 ;;		Unchanged: 0/0
  1712 ;; Data sizes:     COMRAM   BANK0   BANK1   BANK2   BANK3   BANK4   BANK5   BANK6   BANK7   BANK8   BANK9  BANK10  BANK1
      +1  BANK12  BANK13  BANK14  BANK15
  1713 ;;      Params:         0       0       0       0       0       0       0       0       0       0       0       0       
      +0       0       0       0       0
  1714 ;;      Locals:         0       0       2       0       0       0       0       0       0       0       0       0       
      +0       0       0       0       0
  1715 ;;      Temps:          0       0       0       0       0       0       0       0       0       0       0       0       
      +0       0       0       0       0
  1716 ;;      Totals:         0       0       2       0       0       0       0       0       0       0       0       0       
      +0       0       0       0       0
  1717 ;;Total ram usage:        2 bytes
  1718 ;; Hardware stack levels used:    1
  1719 ;; Hardware stack levels required when called:   11
  1720 ;; This function calls:
  1721 ;;		_write_ZIGBEE_short
  1722 ;; This function is called by:
  1723 ;;		_main
  1724 ;; This function uses a non-reentrant model
  1725 ;;
  1726                           
  1727                           	psect	text4
  1728  001A9C                     __ptext4:
  1729                           	opt stack 0
  1730  001A9C                     _set_frame_format_filter:
  1731                           	opt stack 19
  1732                           
  1733                           ; BSR set to: 1
  1734                           ;incstack = 0
  1735                           ;set_frame_format_filter@fff_mode stored from wreg
  1736  001A9C  0101               	movlb	1	; () banked
  1737  001A9E  6F2D               	movwf	set_frame_format_filter@fff_mode& (0+255),b
  1738                           
  1739                           ;zigbee.c: 264: unsigned char temp = 0;
  1740  001AA0  0E00               	movlw	0
  1741  001AA2  0101               	movlb	1	; () banked
  1742  001AA4  6F2E               	movwf	set_frame_format_filter@temp& (0+255),b
  1743                           
  1744                           ;zigbee.c: 265: switch(fff_mode)
  1745  001AA6  D034               	goto	l475
  1746  001AA8                     
  1747                           ; BSR set to: 1
  1748                           ;zigbee.c: 268: {
  1749                           ;zigbee.c: 269: temp=0;
  1750                           
  1751                           ; BSR set to: 1
  1752  001AA8  0E00               	movlw	0
  1753  001AAA  6F2E               	movwf	set_frame_format_filter@temp& (0+255),b
  1754                           
  1755                           ;zigbee.c: 270: temp = temp & (!0x0E);
  1756  001AAC  0E00               	movlw	0
  1757  001AAE  6F2E               	movwf	set_frame_format_filter@temp& (0+255),b
  1758                           
  1759                           ; BSR set to: 1
  1760                           ;zigbee.c: 271: write_ZIGBEE_short(0x0D, temp);
  1761  001AB0  C12E  F12B         	movff	set_frame_format_filter@temp,write_ZIGBEE_short@data_r
  1762  001AB4  0E0D               	movlw	13
  1763  001AB6  EC2B  F010         	call	_write_ZIGBEE_short
  1764                           
  1765                           ;zigbee.c: 272: }
  1766                           ;zigbee.c: 273: break;
  1767  001ABA  0012               	return	
  1768  001ABC                     
  1769                           ;zigbee.c: 275: {
  1770                           ;zigbee.c: 276: temp=0;
  1771  001ABC  0E00               	movlw	0
  1772  001ABE  0101               	movlb	1	; () banked
  1773  001AC0  6F2E               	movwf	set_frame_format_filter@temp& (0+255),b
  1774                           
  1775                           ;zigbee.c: 277: temp = temp & (!0x06);
  1776  001AC2  0E00               	movlw	0
  1777  001AC4  6F2E               	movwf	set_frame_format_filter@temp& (0+255),b
  1778                           
  1779                           ; BSR set to: 1
  1780                           ;zigbee.c: 278: temp = temp | 0x08;
  1781  001AC6  512E               	movf	set_frame_format_filter@temp& (0+255),w,b
  1782  001AC8  0908               	iorlw	8
  1783  001ACA  6F2E               	movwf	set_frame_format_filter@temp& (0+255),b
  1784                           
  1785                           ; BSR set to: 1
  1786                           ;zigbee.c: 279: write_ZIGBEE_short(0x0D, temp);
  1787  001ACC  C12E  F12B         	movff	set_frame_format_filter@temp,write_ZIGBEE_short@data_r
  1788  001AD0  0E0D               	movlw	13
  1789  001AD2  EC2B  F010         	call	_write_ZIGBEE_short
  1790                           
  1791                           ;zigbee.c: 280: }
  1792                           ;zigbee.c: 281: break;
  1793  001AD6  0012               	return	
  1794  001AD8                     
  1795                           ;zigbee.c: 283: {
  1796                           ;zigbee.c: 284: temp=0;
  1797  001AD8  0E00               	movlw	0
  1798  001ADA  0101               	movlb	1	; () banked
  1799  001ADC  6F2E               	movwf	set_frame_format_filter@temp& (0+255),b
  1800                           
  1801                           ;zigbee.c: 285: temp = temp & (!0x0A);
  1802  001ADE  0E00               	movlw	0
  1803  001AE0  6F2E               	movwf	set_frame_format_filter@temp& (0+255),b
  1804                           
  1805                           ; BSR set to: 1
  1806                           ;zigbee.c: 286: temp = temp | 0x04;
  1807  001AE2  512E               	movf	set_frame_format_filter@temp& (0+255),w,b
  1808  001AE4  0904               	iorlw	4
  1809  001AE6  6F2E               	movwf	set_frame_format_filter@temp& (0+255),b
  1810                           
  1811                           ; BSR set to: 1
  1812                           ;zigbee.c: 287: write_ZIGBEE_short(0x0D, temp);
  1813  001AE8  C12E  F12B         	movff	set_frame_format_filter@temp,write_ZIGBEE_short@data_r
  1814  001AEC  0E0D               	movlw	13
  1815  001AEE  EC2B  F010         	call	_write_ZIGBEE_short
  1816                           
  1817                           ;zigbee.c: 288: }
  1818                           ;zigbee.c: 289: break;
  1819  001AF2  0012               	return	
  1820  001AF4                     
  1821                           ;zigbee.c: 292: {
  1822                           ;zigbee.c: 293: temp=0;
  1823  001AF4  0E00               	movlw	0
  1824  001AF6  0101               	movlb	1	; () banked
  1825  001AF8  6F2E               	movwf	set_frame_format_filter@temp& (0+255),b
  1826                           
  1827                           ;zigbee.c: 294: temp = temp & (!0x0C);
  1828  001AFA  0E00               	movlw	0
  1829  001AFC  6F2E               	movwf	set_frame_format_filter@temp& (0+255),b
  1830                           
  1831                           ; BSR set to: 1
  1832                           ;zigbee.c: 295: temp = temp | 0x02;
  1833  001AFE  512E               	movf	set_frame_format_filter@temp& (0+255),w,b
  1834  001B00  0902               	iorlw	2
  1835  001B02  6F2E               	movwf	set_frame_format_filter@temp& (0+255),b
  1836                           
  1837                           ; BSR set to: 1
  1838                           ;zigbee.c: 296: write_ZIGBEE_short(0x0D, temp);
  1839  001B04  C12E  F12B         	movff	set_frame_format_filter@temp,write_ZIGBEE_short@data_r
  1840  001B08  0E0D               	movlw	13
  1841  001B0A  EC2B  F010         	call	_write_ZIGBEE_short
  1842                           
  1843                           ;zigbee.c: 299: }
  1844                           
  1845                           ;zigbee.c: 297: }
  1846                           ;zigbee.c: 298: break;
  1847  001B0E  0012               	return	
  1848  001B10                     l475:
  1849  001B10  0101               	movlb	1	; () banked
  1850  001B12  512D               	movf	set_frame_format_filter@fff_mode& (0+255),w,b
  1851                           
  1852                           ; Switch size 1, requested type "space"
  1853                           ; Number of cases is 4, Range of values is 1 to 4
  1854                           ; switch strategies available:
  1855                           ; Name         Instructions Cycles
  1856                           ; simple_byte           13     7 (average)
  1857                           ;	Chosen strategy is simple_byte
  1858  001B14  0A01               	xorlw	1	; case 1
  1859  001B16  B4D8               	btfsc	status,2,c
  1860  001B18  D7C7               	goto	l476
  1861  001B1A  0A03               	xorlw	3	; case 2
  1862  001B1C  B4D8               	btfsc	status,2,c
  1863  001B1E  D7CE               	goto	l478
  1864  001B20  0A01               	xorlw	1	; case 3
  1865  001B22  B4D8               	btfsc	status,2,c
  1866  001B24  D7D9               	goto	l479
  1867  001B26  0A07               	xorlw	7	; case 4
  1868  001B28  A4D8               	btfss	status,2,c
  1869  001B2A  0012               	return	
  1870  001B2C  D7E3               	goto	l480
  1871  001B2E                     __end_of_set_frame_format_filter:
  1872                           	opt stack 0
  1873                           tblptru	equ	0xFF8
  1874                           tblptrh	equ	0xFF7
  1875                           tblptrl	equ	0xFF6
  1876                           tablat	equ	0xFF5
  1877                           prodh	equ	0xFF4
  1878                           prodl	equ	0xFF3
  1879                           intcon	equ	0xFF2
  1880                           postinc0	equ	0xFEE
  1881                           wreg	equ	0xFE8
  1882                           postdec1	equ	0xFE5
  1883                           fsr1l	equ	0xFE1
  1884                           indf2	equ	0xFDF
  1885                           fsr2h	equ	0xFDA
  1886                           fsr2l	equ	0xFD9
  1887                           status	equ	0xFD8
  1888                           
  1889 ;; *************** function _set_WAKE_from_pin *****************
  1890 ;; Defined at:
  1891 ;;		line 57 in file "zigbee.c"
  1892 ;; Parameters:    Size  Location     Type
  1893 ;;		None
  1894 ;; Auto vars:     Size  Location     Type
  1895 ;;		None
  1896 ;; Return value:  Size  Location     Type
  1897 ;;                  1    wreg      void 
  1898 ;; Registers used:
  1899 ;;		wreg, status,2, status,0, cstack
  1900 ;; Tracked objects:
  1901 ;;		On entry : 0/0
  1902 ;;		On exit  : 0/0
  1903 ;;		Unchanged: 0/0
  1904 ;; Data sizes:     COMRAM   BANK0   BANK1   BANK2   BANK3   BANK4   BANK5   BANK6   BANK7   BANK8   BANK9  BANK10  BANK1
      +1  BANK12  BANK13  BANK14  BANK15
  1905 ;;      Params:         0       0       0       0       0       0       0       0       0       0       0       0       
      +0       0       0       0       0
  1906 ;;      Locals:         0       0       0       0       0       0       0       0       0       0       0       0       
      +0       0       0       0       0
  1907 ;;      Temps:          0       0       0       0       0       0       0       0       0       0       0       0       
      +0       0       0       0       0
  1908 ;;      Totals:         0       0       0       0       0       0       0       0       0       0       0       0       
      +0       0       0       0       0
  1909 ;;Total ram usage:        0 bytes
  1910 ;; Hardware stack levels used:    1
  1911 ;; Hardware stack levels required when called:   11
  1912 ;; This function calls:
  1913 ;;		_write_ZIGBEE_short
  1914 ;; This function is called by:
  1915 ;;		_main
  1916 ;; This function uses a non-reentrant model
  1917 ;;
  1918                           
  1919                           	psect	text5
  1920  00218A                     __ptext5:
  1921                           	opt stack 0
  1922  00218A                     _set_WAKE_from_pin:
  1923                           	opt stack 19
  1924                           
  1925                           ;zigbee.c: 58: PORTFbits.RF2=0;
  1926                           
  1927                           ;incstack = 0
  1928  00218A  9485               	bcf	3973,2,c	;volatile
  1929                           
  1930                           ;zigbee.c: 59: write_ZIGBEE_short(0x0D,0x60);
  1931  00218C  0E60               	movlw	96
  1932  00218E  0101               	movlb	1	; () banked
  1933  002190  6F2B               	movwf	write_ZIGBEE_short@data_r& (0+255),b
  1934  002192  0E0D               	movlw	13
  1935  002194  EC2B  F010         	call	_write_ZIGBEE_short
  1936                           
  1937                           ;zigbee.c: 60: write_ZIGBEE_short(0x22,0x80);
  1938  002198  0E80               	movlw	128
  1939  00219A  0101               	movlb	1	; () banked
  1940  00219C  6F2B               	movwf	write_ZIGBEE_short@data_r& (0+255),b
  1941  00219E  0E22               	movlw	34
  1942  0021A0  EC2B  F010         	call	_write_ZIGBEE_short
  1943  0021A4  0012               	return		;funcret
  1944  0021A6                     __end_of_set_WAKE_from_pin:
  1945                           	opt stack 0
  1946                           tblptru	equ	0xFF8
  1947                           tblptrh	equ	0xFF7
  1948                           tblptrl	equ	0xFF6
  1949                           tablat	equ	0xFF5
  1950                           prodh	equ	0xFF4
  1951                           prodl	equ	0xFF3
  1952                           intcon	equ	0xFF2
  1953                           postinc0	equ	0xFEE
  1954                           wreg	equ	0xFE8
  1955                           postdec1	equ	0xFE5
  1956                           fsr1l	equ	0xFE1
  1957                           indf2	equ	0xFDF
  1958                           fsr2h	equ	0xFDA
  1959                           fsr2l	equ	0xFD9
  1960                           status	equ	0xFD8
  1961                           
  1962 ;; *************** function _set_TX_power *****************
  1963 ;; Defined at:
  1964 ;;		line 251 in file "zigbee.c"
  1965 ;; Parameters:    Size  Location     Type
  1966 ;;  power           1    wreg     unsigned char 
  1967 ;; Auto vars:     Size  Location     Type
  1968 ;;  power           1   10[BANK1 ] unsigned char 
  1969 ;; Return value:  Size  Location     Type
  1970 ;;                  1    wreg      void 
  1971 ;; Registers used:
  1972 ;;		wreg, status,2, status,0, cstack
  1973 ;; Tracked objects:
  1974 ;;		On entry : 0/0
  1975 ;;		On exit  : 0/0
  1976 ;;		Unchanged: 0/0
  1977 ;; Data sizes:     COMRAM   BANK0   BANK1   BANK2   BANK3   BANK4   BANK5   BANK6   BANK7   BANK8   BANK9  BANK10  BANK1
      +1  BANK12  BANK13  BANK14  BANK15
  1978 ;;      Params:         0       0       0       0       0       0       0       0       0       0       0       0       
      +0       0       0       0       0
  1979 ;;      Locals:         0       0       1       0       0       0       0       0       0       0       0       0       
      +0       0       0       0       0
  1980 ;;      Temps:          0       0       1       0       0       0       0       0       0       0       0       0       
      +0       0       0       0       0
  1981 ;;      Totals:         0       0       2       0       0       0       0       0       0       0       0       0       
      +0       0       0       0       0
  1982 ;;Total ram usage:        2 bytes
  1983 ;; Hardware stack levels used:    1
  1984 ;; Hardware stack levels required when called:   11
  1985 ;; This function calls:
  1986 ;;		_write_ZIGBEE_long
  1987 ;; This function is called by:
  1988 ;;		_main
  1989 ;; This function uses a non-reentrant model
  1990 ;;
  1991                           
  1992                           	psect	text6
  1993  001D3C                     __ptext6:
  1994                           	opt stack 0
  1995  001D3C                     _set_TX_power:
  1996                           	opt stack 19
  1997                           
  1998                           ;incstack = 0
  1999                           ;set_TX_power@power stored from wreg
  2000  001D3C  0101               	movlb	1	; () banked
  2001  001D3E  6F33               	movwf	set_TX_power@power& (0+255),b
  2002                           
  2003                           ;zigbee.c: 252: if((power < 0) || (power > 31))
  2004  001D40  0E1F               	movlw	31
  2005  001D42  0101               	movlb	1	; () banked
  2006  001D44  6533               	cpfsgt	set_TX_power@power& (0+255),b
  2007  001D46  D002               	goto	l471
  2008                           
  2009                           ; BSR set to: 1
  2010                           ;zigbee.c: 253: power = 31;
  2011  001D48  0E1F               	movlw	31
  2012  001D4A  6F33               	movwf	set_TX_power@power& (0+255),b
  2013  001D4C                     l471:
  2014                           
  2015                           ; BSR set to: 1
  2016                           ;zigbee.c: 255: power = 31 - power;
  2017                           
  2018                           ; BSR set to: 1
  2019  001D4C  5133               	movf	set_TX_power@power& (0+255),w,b
  2020  001D4E  0800               	sublw	0
  2021  001D50  0F1F               	addlw	31
  2022  001D52  6F33               	movwf	set_TX_power@power& (0+255),b
  2023                           
  2024                           ; BSR set to: 1
  2025                           ;zigbee.c: 256: power = ((power & 0b00011111) << 3) & 0b11111000;
  2026  001D54  C133  F132         	movff	set_TX_power@power,??_set_TX_power
  2027  001D58  0E1F               	movlw	31
  2028  001D5A  1732               	andwf	??_set_TX_power& (0+255),f,b
  2029  001D5C  90D8               	bcf	status,0,c
  2030  001D5E  3732               	rlcf	??_set_TX_power& (0+255),f,b
  2031  001D60  90D8               	bcf	status,0,c
  2032  001D62  3732               	rlcf	??_set_TX_power& (0+255),f,b
  2033  001D64  90D8               	bcf	status,0,c
  2034  001D66  3532               	rlcf	??_set_TX_power& (0+255),w,b
  2035  001D68  0BF8               	andlw	248
  2036  001D6A  6F33               	movwf	set_TX_power@power& (0+255),b
  2037                           
  2038                           ; BSR set to: 1
  2039                           ;zigbee.c: 257: write_ZIGBEE_long(0x203, power);
  2040  001D6C  0E02               	movlw	2
  2041  001D6E  6F2C               	movwf	(write_ZIGBEE_long@address+1)& (0+255),b
  2042  001D70  0E03               	movlw	3
  2043  001D72  6F2B               	movwf	write_ZIGBEE_long@address& (0+255),b
  2044  001D74  C133  F12D         	movff	set_TX_power@power,write_ZIGBEE_long@data_r
  2045  001D78  ECFF  F00D         	call	_write_ZIGBEE_long	;wreg free
  2046  001D7C  0012               	return		;funcret
  2047  001D7E                     __end_of_set_TX_power:
  2048                           	opt stack 0
  2049                           tblptru	equ	0xFF8
  2050                           tblptrh	equ	0xFF7
  2051                           tblptrl	equ	0xFF6
  2052                           tablat	equ	0xFF5
  2053                           prodh	equ	0xFF4
  2054                           prodl	equ	0xFF3
  2055                           intcon	equ	0xFF2
  2056                           postinc0	equ	0xFEE
  2057                           wreg	equ	0xFE8
  2058                           postdec1	equ	0xFE5
  2059                           fsr1l	equ	0xFE1
  2060                           indf2	equ	0xFDF
  2061                           fsr2h	equ	0xFDA
  2062                           fsr2l	equ	0xFD9
  2063                           status	equ	0xFD8
  2064                           
  2065 ;; *************** function _set_PAN_ID *****************
  2066 ;; Defined at:
  2067 ;;		line 71 in file "zigbee.c"
  2068 ;; Parameters:    Size  Location     Type
  2069 ;;  address         2    4[BANK1 ] PTR unsigned char 
  2070 ;;		 -> PAN_ID_2(2), 
  2071 ;; Auto vars:     Size  Location     Type
  2072 ;;		None
  2073 ;; Return value:  Size  Location     Type
  2074 ;;                  1    wreg      void 
  2075 ;; Registers used:
  2076 ;;		wreg, fsr2l, fsr2h, status,2, status,0, cstack
  2077 ;; Tracked objects:
  2078 ;;		On entry : 0/0
  2079 ;;		On exit  : 0/0
  2080 ;;		Unchanged: 0/0
  2081 ;; Data sizes:     COMRAM   BANK0   BANK1   BANK2   BANK3   BANK4   BANK5   BANK6   BANK7   BANK8   BANK9  BANK10  BANK1
      +1  BANK12  BANK13  BANK14  BANK15
  2082 ;;      Params:         0       0       2       0       0       0       0       0       0       0       0       0       
      +0       0       0       0       0
  2083 ;;      Locals:         0       0       0       0       0       0       0       0       0       0       0       0       
      +0       0       0       0       0
  2084 ;;      Temps:          0       0       0       0       0       0       0       0       0       0       0       0       
      +0       0       0       0       0
  2085 ;;      Totals:         0       0       2       0       0       0       0       0       0       0       0       0       
      +0       0       0       0       0
  2086 ;;Total ram usage:        2 bytes
  2087 ;; Hardware stack levels used:    1
  2088 ;; Hardware stack levels required when called:   11
  2089 ;; This function calls:
  2090 ;;		_write_ZIGBEE_short
  2091 ;; This function is called by:
  2092 ;;		_main
  2093 ;; This function uses a non-reentrant model
  2094 ;;
  2095                           
  2096                           	psect	text7
  2097  001F8A                     __ptext7:
  2098                           	opt stack 0
  2099  001F8A                     _set_PAN_ID:
  2100                           	opt stack 19
  2101                           
  2102                           ;zigbee.c: 72: write_ZIGBEE_short(0x01, address[0]);
  2103                           
  2104                           ;incstack = 0
  2105  001F8A  C12D  FFD9         	movff	set_PAN_ID@address,fsr2l
  2106  001F8E  C12E  FFDA         	movff	set_PAN_ID@address+1,fsr2h
  2107  001F92  50DF               	movf	indf2,w,c
  2108  001F94  0101               	movlb	1	; () banked
  2109  001F96  6F2B               	movwf	write_ZIGBEE_short@data_r& (0+255),b
  2110  001F98  0E01               	movlw	1
  2111  001F9A  EC2B  F010         	call	_write_ZIGBEE_short
  2112                           
  2113                           ;zigbee.c: 73: write_ZIGBEE_short(0x02, address[1]);
  2114  001F9E  0101               	movlb	1	; () banked
  2115  001FA0  EE20 F001          	lfsr	2,1
  2116  001FA4  512D               	movf	set_PAN_ID@address& (0+255),w,b
  2117  001FA6  26D9               	addwf	fsr2l,f,c
  2118  001FA8  512E               	movf	(set_PAN_ID@address+1)& (0+255),w,b
  2119  001FAA  22DA               	addwfc	fsr2h,f,c
  2120  001FAC  50DF               	movf	indf2,w,c
  2121  001FAE  6F2B               	movwf	write_ZIGBEE_short@data_r& (0+255),b
  2122  001FB0  0E02               	movlw	2
  2123  001FB2  EC2B  F010         	call	_write_ZIGBEE_short
  2124  001FB6  0012               	return		;funcret
  2125  001FB8                     __end_of_set_PAN_ID:
  2126                           	opt stack 0
  2127                           tblptru	equ	0xFF8
  2128                           tblptrh	equ	0xFF7
  2129                           tblptrl	equ	0xFF6
  2130                           tablat	equ	0xFF5
  2131                           prodh	equ	0xFF4
  2132                           prodl	equ	0xFF3
  2133                           intcon	equ	0xFF2
  2134                           postinc0	equ	0xFEE
  2135                           wreg	equ	0xFE8
  2136                           postdec1	equ	0xFE5
  2137                           fsr1l	equ	0xFE1
  2138                           indf2	equ	0xFDF
  2139                           fsr2h	equ	0xFDA
  2140                           fsr2l	equ	0xFD9
  2141                           status	equ	0xFD8
  2142                           
  2143 ;; *************** function _pin_reset *****************
  2144 ;; Defined at:
  2145 ;;		line 46 in file "zigbee.c"
  2146 ;; Parameters:    Size  Location     Type
  2147 ;;		None
  2148 ;; Auto vars:     Size  Location     Type
  2149 ;;		None
  2150 ;; Return value:  Size  Location     Type
  2151 ;;                  1    wreg      void 
  2152 ;; Registers used:
  2153 ;;		wreg, status,2, status,0, cstack
  2154 ;; Tracked objects:
  2155 ;;		On entry : 0/0
  2156 ;;		On exit  : 0/0
  2157 ;;		Unchanged: 0/0
  2158 ;; Data sizes:     COMRAM   BANK0   BANK1   BANK2   BANK3   BANK4   BANK5   BANK6   BANK7   BANK8   BANK9  BANK10  BANK1
      +1  BANK12  BANK13  BANK14  BANK15
  2159 ;;      Params:         0       0       0       0       0       0       0       0       0       0       0       0       
      +0       0       0       0       0
  2160 ;;      Locals:         0       0       0       0       0       0       0       0       0       0       0       0       
      +0       0       0       0       0
  2161 ;;      Temps:          0       0       0       0       0       0       0       0       0       0       0       0       
      +0       0       0       0       0
  2162 ;;      Totals:         0       0       0       0       0       0       0       0       0       0       0       0       
      +0       0       0       0       0
  2163 ;;Total ram usage:        0 bytes
  2164 ;; Hardware stack levels used:    1
  2165 ;; Hardware stack levels required when called:   10
  2166 ;; This function calls:
  2167 ;;		_Delay_ms
  2168 ;; This function is called by:
  2169 ;;		_main
  2170 ;; This function uses a non-reentrant model
  2171 ;;
  2172                           
  2173                           	psect	text8
  2174  00210A                     __ptext8:
  2175                           	opt stack 0
  2176  00210A                     _pin_reset:
  2177                           	opt stack 20
  2178                           
  2179                           ;zigbee.c: 47: PORTCbits.RC1=0;
  2180                           
  2181                           ;incstack = 0
  2182  00210A  9282               	bcf	3970,1,c	;volatile
  2183                           
  2184                           ;zigbee.c: 48: Delay_ms(10);
  2185  00210C  0E00               	movlw	0
  2186  00210E  0101               	movlb	1	; () banked
  2187  002110  6F2A               	movwf	(Delay_ms@time+1)& (0+255),b
  2188  002112  0E0A               	movlw	10
  2189  002114  6F29               	movwf	Delay_ms@time& (0+255),b
  2190  002116  ECD3  F010         	call	_Delay_ms	;wreg free
  2191                           
  2192                           ;zigbee.c: 49: PORTCbits.RC1=1;
  2193  00211A  8282               	bsf	3970,1,c	;volatile
  2194                           
  2195                           ;zigbee.c: 50: Delay_ms(10);
  2196  00211C  0E00               	movlw	0
  2197  00211E  0101               	movlb	1	; () banked
  2198  002120  6F2A               	movwf	(Delay_ms@time+1)& (0+255),b
  2199  002122  0E0A               	movlw	10
  2200  002124  6F29               	movwf	Delay_ms@time& (0+255),b
  2201  002126  ECD3  F010         	call	_Delay_ms	;wreg free
  2202  00212A  0012               	return		;funcret
  2203  00212C                     __end_of_pin_reset:
  2204                           	opt stack 0
  2205                           tblptru	equ	0xFF8
  2206                           tblptrh	equ	0xFF7
  2207                           tblptrl	equ	0xFF6
  2208                           tablat	equ	0xFF5
  2209                           prodh	equ	0xFF4
  2210                           prodl	equ	0xFF3
  2211                           intcon	equ	0xFF2
  2212                           postinc0	equ	0xFEE
  2213                           wreg	equ	0xFE8
  2214                           postdec1	equ	0xFE5
  2215                           fsr1l	equ	0xFE1
  2216                           indf2	equ	0xFDF
  2217                           fsr2h	equ	0xFDA
  2218                           fsr2l	equ	0xFD9
  2219                           status	equ	0xFD8
  2220                           
  2221 ;; *************** function _nonbeacon_PAN_coordinator_device *****************
  2222 ;; Defined at:
  2223 ;;		line 235 in file "zigbee.c"
  2224 ;; Parameters:    Size  Location     Type
  2225 ;;		None
  2226 ;; Auto vars:     Size  Location     Type
  2227 ;;  temp            1    4[BANK1 ] unsigned char 
  2228 ;; Return value:  Size  Location     Type
  2229 ;;                  1    wreg      void 
  2230 ;; Registers used:
  2231 ;;		wreg, status,2, status,0, cstack
  2232 ;; Tracked objects:
  2233 ;;		On entry : 0/0
  2234 ;;		On exit  : 0/0
  2235 ;;		Unchanged: 0/0
  2236 ;; Data sizes:     COMRAM   BANK0   BANK1   BANK2   BANK3   BANK4   BANK5   BANK6   BANK7   BANK8   BANK9  BANK10  BANK1
      +1  BANK12  BANK13  BANK14  BANK15
  2237 ;;      Params:         0       0       0       0       0       0       0       0       0       0       0       0       
      +0       0       0       0       0
  2238 ;;      Locals:         0       0       1       0       0       0       0       0       0       0       0       0       
      +0       0       0       0       0
  2239 ;;      Temps:          0       0       0       0       0       0       0       0       0       0       0       0       
      +0       0       0       0       0
  2240 ;;      Totals:         0       0       1       0       0       0       0       0       0       0       0       0       
      +0       0       0       0       0
  2241 ;;Total ram usage:        1 bytes
  2242 ;; Hardware stack levels used:    1
  2243 ;; Hardware stack levels required when called:   11
  2244 ;; This function calls:
  2245 ;;		_write_ZIGBEE_short
  2246 ;; This function is called by:
  2247 ;;		_main
  2248 ;; This function uses a non-reentrant model
  2249 ;;
  2250                           
  2251                           	psect	text9
  2252  001E42                     __ptext9:
  2253                           	opt stack 0
  2254  001E42                     _nonbeacon_PAN_coordinator_device:
  2255                           	opt stack 19
  2256                           
  2257                           ;zigbee.c: 236: unsigned char temp = 0;
  2258                           
  2259                           ;incstack = 0
  2260  001E42  0E00               	movlw	0
  2261  001E44  0101               	movlb	1	; () banked
  2262  001E46  6F2D               	movwf	nonbeacon_PAN_coordinator_device@temp& (0+255),b
  2263                           
  2264                           ;zigbee.c: 238: temp=0;
  2265  001E48  0E00               	movlw	0
  2266  001E4A  6F2D               	movwf	nonbeacon_PAN_coordinator_device@temp& (0+255),b
  2267                           
  2268                           ; BSR set to: 1
  2269                           ;zigbee.c: 239: temp = temp | 0x08;
  2270  001E4C  512D               	movf	nonbeacon_PAN_coordinator_device@temp& (0+255),w,b
  2271  001E4E  0908               	iorlw	8
  2272  001E50  6F2D               	movwf	nonbeacon_PAN_coordinator_device@temp& (0+255),b
  2273                           
  2274                           ; BSR set to: 1
  2275                           ;zigbee.c: 240: write_ZIGBEE_short(0x00, temp);
  2276  001E52  C12D  F12B         	movff	nonbeacon_PAN_coordinator_device@temp,write_ZIGBEE_short@data_r
  2277  001E56  0E00               	movlw	0
  2278  001E58  EC2B  F010         	call	_write_ZIGBEE_short
  2279                           
  2280                           ;zigbee.c: 242: temp=0;
  2281  001E5C  0E00               	movlw	0
  2282  001E5E  0101               	movlb	1	; () banked
  2283  001E60  6F2D               	movwf	nonbeacon_PAN_coordinator_device@temp& (0+255),b
  2284                           
  2285                           ; BSR set to: 1
  2286                           ;zigbee.c: 243: temp = temp & 0xDF;
  2287  001E62  512D               	movf	nonbeacon_PAN_coordinator_device@temp& (0+255),w,b
  2288  001E64  0BDF               	andlw	223
  2289  001E66  6F2D               	movwf	nonbeacon_PAN_coordinator_device@temp& (0+255),b
  2290                           
  2291                           ;zigbee.c: 244: write_ZIGBEE_short(0x11, temp);
  2292  001E68  C12D  F12B         	movff	nonbeacon_PAN_coordinator_device@temp,write_ZIGBEE_short@data_r
  2293  001E6C  0E11               	movlw	17
  2294  001E6E  EC2B  F010         	call	_write_ZIGBEE_short
  2295                           
  2296                           ;zigbee.c: 246: write_ZIGBEE_short(0x10, 0xFF);
  2297  001E72  0EFF               	movlw	255
  2298  001E74  0101               	movlb	1	; () banked
  2299  001E76  6F2B               	movwf	write_ZIGBEE_short@data_r& (0+255),b
  2300  001E78  0E10               	movlw	16
  2301  001E7A  EC2B  F010         	call	_write_ZIGBEE_short
  2302  001E7E  0012               	return		;funcret
  2303  001E80                     __end_of_nonbeacon_PAN_coordinator_device:
  2304                           	opt stack 0
  2305                           tblptru	equ	0xFF8
  2306                           tblptrh	equ	0xFF7
  2307                           tblptrl	equ	0xFF6
  2308                           tablat	equ	0xFF5
  2309                           prodh	equ	0xFF4
  2310                           prodl	equ	0xFF3
  2311                           intcon	equ	0xFF2
  2312                           postinc0	equ	0xFEE
  2313                           wreg	equ	0xFE8
  2314                           postdec1	equ	0xFE5
  2315                           fsr1l	equ	0xFE1
  2316                           indf2	equ	0xFDF
  2317                           fsr2h	equ	0xFDA
  2318                           fsr2l	equ	0xFD9
  2319                           status	equ	0xFD8
  2320                           
  2321 ;; *************** function _init_ZIGBEE_nonbeacon *****************
  2322 ;; Defined at:
  2323 ;;		line 75 in file "zigbee.c"
  2324 ;; Parameters:    Size  Location     Type
  2325 ;;		None
  2326 ;; Auto vars:     Size  Location     Type
  2327 ;;		None
  2328 ;; Return value:  Size  Location     Type
  2329 ;;                  1    wreg      void 
  2330 ;; Registers used:
  2331 ;;		wreg, status,2, status,0, cstack
  2332 ;; Tracked objects:
  2333 ;;		On entry : 0/0
  2334 ;;		On exit  : 0/0
  2335 ;;		Unchanged: 0/0
  2336 ;; Data sizes:     COMRAM   BANK0   BANK1   BANK2   BANK3   BANK4   BANK5   BANK6   BANK7   BANK8   BANK9  BANK10  BANK1
      +1  BANK12  BANK13  BANK14  BANK15
  2337 ;;      Params:         0       0       0       0       0       0       0       0       0       0       0       0       
      +0       0       0       0       0
  2338 ;;      Locals:         0       0       0       0       0       0       0       0       0       0       0       0       
      +0       0       0       0       0
  2339 ;;      Temps:          0       0       0       0       0       0       0       0       0       0       0       0       
      +0       0       0       0       0
  2340 ;;      Totals:         0       0       0       0       0       0       0       0       0       0       0       0       
      +0       0       0       0       0
  2341 ;;Total ram usage:        0 bytes
  2342 ;; Hardware stack levels used:    1
  2343 ;; Hardware stack levels required when called:   13
  2344 ;; This function calls:
  2345 ;;		_RF_reset
  2346 ;;		_enable_interrupt
  2347 ;;		_init_ZIGBEE_basic
  2348 ;;		_pin_wake
  2349 ;;		_set_CCA_mode
  2350 ;;		_set_RSSI_mode
  2351 ;;		_set_channel
  2352 ;; This function is called by:
  2353 ;;		_main
  2354 ;; This function uses a non-reentrant model
  2355 ;;
  2356                           
  2357                           	psect	text10
  2358  002032                     __ptext10:
  2359                           	opt stack 0
  2360  002032                     _init_ZIGBEE_nonbeacon:
  2361                           	opt stack 17
  2362                           
  2363                           ;zigbee.c: 76: init_ZIGBEE_basic();
  2364                           
  2365                           ;incstack = 0
  2366  002032  EC03  F00D         	call	_init_ZIGBEE_basic	;wreg free
  2367                           
  2368                           ;zigbee.c: 77: set_CCA_mode(1);
  2369  002036  0E01               	movlw	1
  2370  002038  EC44  F00C         	call	_set_CCA_mode
  2371                           
  2372                           ;zigbee.c: 78: set_RSSI_mode(2);
  2373  00203C  0E02               	movlw	2
  2374  00203E  ECBF  F00E         	call	_set_RSSI_mode
  2375                           
  2376                           ;zigbee.c: 79: enable_interrupt();
  2377  002042  EC7F  F011         	call	_enable_interrupt	;wreg free
  2378                           
  2379                           ;zigbee.c: 80: set_channel(15);
  2380  002046  0E0F               	movlw	15
  2381  002048  EC46  F00A         	call	_set_channel
  2382                           
  2383                           ;zigbee.c: 81: pin_wake();
  2384  00204C  EC4B  F011         	call	_pin_wake	;wreg free
  2385                           
  2386                           ;zigbee.c: 82: RF_reset();
  2387  002050  ECF1  F00F         	call	_RF_reset	;wreg free
  2388  002054  0012               	return		;funcret
  2389  002056                     __end_of_init_ZIGBEE_nonbeacon:
  2390                           	opt stack 0
  2391                           tblptru	equ	0xFF8
  2392                           tblptrh	equ	0xFF7
  2393                           tblptrl	equ	0xFF6
  2394                           tablat	equ	0xFF5
  2395                           prodh	equ	0xFF4
  2396                           prodl	equ	0xFF3
  2397                           intcon	equ	0xFF2
  2398                           postinc0	equ	0xFEE
  2399                           wreg	equ	0xFE8
  2400                           postdec1	equ	0xFE5
  2401                           fsr1l	equ	0xFE1
  2402                           indf2	equ	0xFDF
  2403                           fsr2h	equ	0xFDA
  2404                           fsr2l	equ	0xFD9
  2405                           status	equ	0xFD8
  2406                           
  2407 ;; *************** function _set_channel *****************
  2408 ;; Defined at:
  2409 ;;		line 171 in file "zigbee.c"
  2410 ;; Parameters:    Size  Location     Type
  2411 ;;  channel_numb    1    wreg     unsigned char 
  2412 ;; Auto vars:     Size  Location     Type
  2413 ;;  channel_numb    1    9[BANK1 ] unsigned char 
  2414 ;; Return value:  Size  Location     Type
  2415 ;;                  1    wreg      void 
  2416 ;; Registers used:
  2417 ;;		wreg, status,2, status,0, cstack
  2418 ;; Tracked objects:
  2419 ;;		On entry : 0/0
  2420 ;;		On exit  : 0/0
  2421 ;;		Unchanged: 0/0
  2422 ;; Data sizes:     COMRAM   BANK0   BANK1   BANK2   BANK3   BANK4   BANK5   BANK6   BANK7   BANK8   BANK9  BANK10  BANK1
      +1  BANK12  BANK13  BANK14  BANK15
  2423 ;;      Params:         0       0       0       0       0       0       0       0       0       0       0       0       
      +0       0       0       0       0
  2424 ;;      Locals:         0       0       1       0       0       0       0       0       0       0       0       0       
      +0       0       0       0       0
  2425 ;;      Temps:          0       0       0       0       0       0       0       0       0       0       0       0       
      +0       0       0       0       0
  2426 ;;      Totals:         0       0       1       0       0       0       0       0       0       0       0       0       
      +0       0       0       0       0
  2427 ;;Total ram usage:        1 bytes
  2428 ;; Hardware stack levels used:    1
  2429 ;; Hardware stack levels required when called:   12
  2430 ;; This function calls:
  2431 ;;		_RF_reset
  2432 ;;		_write_ZIGBEE_long
  2433 ;; This function is called by:
  2434 ;;		_init_ZIGBEE_nonbeacon
  2435 ;; This function uses a non-reentrant model
  2436 ;;
  2437                           
  2438                           	psect	text11
  2439  00148C                     __ptext11:
  2440                           	opt stack 0
  2441  00148C                     _set_channel:
  2442                           	opt stack 17
  2443                           
  2444                           ;incstack = 0
  2445                           ;set_channel@channel_number stored from wreg
  2446  00148C  0101               	movlb	1	; () banked
  2447  00148E  6F32               	movwf	set_channel@channel_number& (0+255),b
  2448                           
  2449                           ;zigbee.c: 173: if((channel_number > 26) || (channel_number < 11))
  2450  001490  0E1B               	movlw	27
  2451  001492  0101               	movlb	1	; () banked
  2452  001494  6132               	cpfslt	set_channel@channel_number& (0+255),b
  2453  001496  D003               	goto	u1160
  2454                           
  2455                           ; BSR set to: 1
  2456  001498  0E0B               	movlw	11
  2457  00149A  6132               	cpfslt	set_channel@channel_number& (0+255),b
  2458  00149C  D0A2               	goto	l444
  2459  00149E                     u1160:
  2460                           
  2461                           ; BSR set to: 1
  2462                           ;zigbee.c: 174: channel_number = 11;
  2463                           
  2464                           ; BSR set to: 1
  2465  00149E  0E0B               	movlw	11
  2466  0014A0  6F32               	movwf	set_channel@channel_number& (0+255),b
  2467                           
  2468                           ; BSR set to: 1
  2469                           ;zigbee.c: 176: switch(channel_number)
  2470  0014A2  D09F               	goto	l444
  2471  0014A4                     
  2472                           ; BSR set to: 1
  2473                           ;zigbee.c: 179: write_ZIGBEE_long(0x200, 0x02);
  2474                           
  2475                           ; BSR set to: 1
  2476  0014A4  0E02               	movlw	2
  2477  0014A6  6F2C               	movwf	(write_ZIGBEE_long@address+1)& (0+255),b
  2478  0014A8  0E00               	movlw	0
  2479  0014AA  6F2B               	movwf	write_ZIGBEE_long@address& (0+255),b
  2480  0014AC  0E02               	movlw	2
  2481  0014AE  6F2D               	movwf	write_ZIGBEE_long@data_r& (0+255),b
  2482  0014B0  ECFF  F00D         	call	_write_ZIGBEE_long	;wreg free
  2483                           
  2484                           ;zigbee.c: 180: break;
  2485  0014B4  D0C8               	goto	l446
  2486  0014B6                     
  2487                           ;zigbee.c: 183: write_ZIGBEE_long(0x200, 0x12);
  2488  0014B6  0E02               	movlw	2
  2489  0014B8  0101               	movlb	1	; () banked
  2490  0014BA  6F2C               	movwf	(write_ZIGBEE_long@address+1)& (0+255),b
  2491  0014BC  0E00               	movlw	0
  2492  0014BE  6F2B               	movwf	write_ZIGBEE_long@address& (0+255),b
  2493  0014C0  0E12               	movlw	18
  2494  0014C2  6F2D               	movwf	write_ZIGBEE_long@data_r& (0+255),b
  2495  0014C4  ECFF  F00D         	call	_write_ZIGBEE_long	;wreg free
  2496                           
  2497                           ;zigbee.c: 184: break;
  2498  0014C8  D0BE               	goto	l446
  2499  0014CA                     
  2500                           ;zigbee.c: 187: write_ZIGBEE_long(0x200, 0x22);
  2501  0014CA  0E02               	movlw	2
  2502  0014CC  0101               	movlb	1	; () banked
  2503  0014CE  6F2C               	movwf	(write_ZIGBEE_long@address+1)& (0+255),b
  2504  0014D0  0E00               	movlw	0
  2505  0014D2  6F2B               	movwf	write_ZIGBEE_long@address& (0+255),b
  2506  0014D4  0E22               	movlw	34
  2507  0014D6  6F2D               	movwf	write_ZIGBEE_long@data_r& (0+255),b
  2508  0014D8  ECFF  F00D         	call	_write_ZIGBEE_long	;wreg free
  2509                           
  2510                           ;zigbee.c: 188: break;
  2511  0014DC  D0B4               	goto	l446
  2512  0014DE                     
  2513                           ;zigbee.c: 190: write_ZIGBEE_long(0x200, 0x32);
  2514  0014DE  0E02               	movlw	2
  2515  0014E0  0101               	movlb	1	; () banked
  2516  0014E2  6F2C               	movwf	(write_ZIGBEE_long@address+1)& (0+255),b
  2517  0014E4  0E00               	movlw	0
  2518  0014E6  6F2B               	movwf	write_ZIGBEE_long@address& (0+255),b
  2519  0014E8  0E32               	movlw	50
  2520  0014EA  6F2D               	movwf	write_ZIGBEE_long@data_r& (0+255),b
  2521  0014EC  ECFF  F00D         	call	_write_ZIGBEE_long	;wreg free
  2522                           
  2523                           ;zigbee.c: 191: break;
  2524  0014F0  D0AA               	goto	l446
  2525  0014F2                     
  2526                           ;zigbee.c: 193: write_ZIGBEE_long(0x200, 0x42);
  2527  0014F2  0E02               	movlw	2
  2528  0014F4  0101               	movlb	1	; () banked
  2529  0014F6  6F2C               	movwf	(write_ZIGBEE_long@address+1)& (0+255),b
  2530  0014F8  0E00               	movlw	0
  2531  0014FA  6F2B               	movwf	write_ZIGBEE_long@address& (0+255),b
  2532  0014FC  0E42               	movlw	66
  2533  0014FE  6F2D               	movwf	write_ZIGBEE_long@data_r& (0+255),b
  2534  001500  ECFF  F00D         	call	_write_ZIGBEE_long	;wreg free
  2535                           
  2536                           ;zigbee.c: 194: break;
  2537  001504  D0A0               	goto	l446
  2538  001506                     
  2539                           ;zigbee.c: 196: write_ZIGBEE_long(0x200, 0x52);
  2540  001506  0E02               	movlw	2
  2541  001508  0101               	movlb	1	; () banked
  2542  00150A  6F2C               	movwf	(write_ZIGBEE_long@address+1)& (0+255),b
  2543  00150C  0E00               	movlw	0
  2544  00150E  6F2B               	movwf	write_ZIGBEE_long@address& (0+255),b
  2545  001510  0E52               	movlw	82
  2546  001512  6F2D               	movwf	write_ZIGBEE_long@data_r& (0+255),b
  2547  001514  ECFF  F00D         	call	_write_ZIGBEE_long	;wreg free
  2548                           
  2549                           ;zigbee.c: 197: break;
  2550  001518  D096               	goto	l446
  2551  00151A                     
  2552                           ;zigbee.c: 199: write_ZIGBEE_long(0x200, 0x62);
  2553  00151A  0E02               	movlw	2
  2554  00151C  0101               	movlb	1	; () banked
  2555  00151E  6F2C               	movwf	(write_ZIGBEE_long@address+1)& (0+255),b
  2556  001520  0E00               	movlw	0
  2557  001522  6F2B               	movwf	write_ZIGBEE_long@address& (0+255),b
  2558  001524  0E62               	movlw	98
  2559  001526  6F2D               	movwf	write_ZIGBEE_long@data_r& (0+255),b
  2560  001528  ECFF  F00D         	call	_write_ZIGBEE_long	;wreg free
  2561                           
  2562                           ;zigbee.c: 200: break;
  2563  00152C  D08C               	goto	l446
  2564  00152E                     
  2565                           ;zigbee.c: 202: write_ZIGBEE_long(0x200, 0x72);
  2566  00152E  0E02               	movlw	2
  2567  001530  0101               	movlb	1	; () banked
  2568  001532  6F2C               	movwf	(write_ZIGBEE_long@address+1)& (0+255),b
  2569  001534  0E00               	movlw	0
  2570  001536  6F2B               	movwf	write_ZIGBEE_long@address& (0+255),b
  2571  001538  0E72               	movlw	114
  2572  00153A  6F2D               	movwf	write_ZIGBEE_long@data_r& (0+255),b
  2573  00153C  ECFF  F00D         	call	_write_ZIGBEE_long	;wreg free
  2574                           
  2575                           ;zigbee.c: 203: break;
  2576  001540  D082               	goto	l446
  2577  001542                     
  2578                           ;zigbee.c: 205: write_ZIGBEE_long(0x200, 0x82);
  2579  001542  0E02               	movlw	2
  2580  001544  0101               	movlb	1	; () banked
  2581  001546  6F2C               	movwf	(write_ZIGBEE_long@address+1)& (0+255),b
  2582  001548  0E00               	movlw	0
  2583  00154A  6F2B               	movwf	write_ZIGBEE_long@address& (0+255),b
  2584  00154C  0E82               	movlw	130
  2585  00154E  6F2D               	movwf	write_ZIGBEE_long@data_r& (0+255),b
  2586  001550  ECFF  F00D         	call	_write_ZIGBEE_long	;wreg free
  2587                           
  2588                           ;zigbee.c: 206: break;
  2589  001554  D078               	goto	l446
  2590  001556                     
  2591                           ;zigbee.c: 208: write_ZIGBEE_long(0x200, 0x92);
  2592  001556  0E02               	movlw	2
  2593  001558  0101               	movlb	1	; () banked
  2594  00155A  6F2C               	movwf	(write_ZIGBEE_long@address+1)& (0+255),b
  2595  00155C  0E00               	movlw	0
  2596  00155E  6F2B               	movwf	write_ZIGBEE_long@address& (0+255),b
  2597  001560  0E92               	movlw	146
  2598  001562  6F2D               	movwf	write_ZIGBEE_long@data_r& (0+255),b
  2599  001564  ECFF  F00D         	call	_write_ZIGBEE_long	;wreg free
  2600                           
  2601                           ;zigbee.c: 209: break;
  2602  001568  D06E               	goto	l446
  2603  00156A                     
  2604                           ;zigbee.c: 211: write_ZIGBEE_long(0x200, 0xA2);
  2605  00156A  0E02               	movlw	2
  2606  00156C  0101               	movlb	1	; () banked
  2607  00156E  6F2C               	movwf	(write_ZIGBEE_long@address+1)& (0+255),b
  2608  001570  0E00               	movlw	0
  2609  001572  6F2B               	movwf	write_ZIGBEE_long@address& (0+255),b
  2610  001574  0EA2               	movlw	162
  2611  001576  6F2D               	movwf	write_ZIGBEE_long@data_r& (0+255),b
  2612  001578  ECFF  F00D         	call	_write_ZIGBEE_long	;wreg free
  2613                           
  2614                           ;zigbee.c: 212: break;
  2615  00157C  D064               	goto	l446
  2616  00157E                     
  2617                           ;zigbee.c: 214: write_ZIGBEE_long(0x200, 0xB2);
  2618  00157E  0E02               	movlw	2
  2619  001580  0101               	movlb	1	; () banked
  2620  001582  6F2C               	movwf	(write_ZIGBEE_long@address+1)& (0+255),b
  2621  001584  0E00               	movlw	0
  2622  001586  6F2B               	movwf	write_ZIGBEE_long@address& (0+255),b
  2623  001588  0EB2               	movlw	178
  2624  00158A  6F2D               	movwf	write_ZIGBEE_long@data_r& (0+255),b
  2625  00158C  ECFF  F00D         	call	_write_ZIGBEE_long	;wreg free
  2626                           
  2627                           ;zigbee.c: 215: break;
  2628  001590  D05A               	goto	l446
  2629  001592                     
  2630                           ;zigbee.c: 217: write_ZIGBEE_long(0x200, 0xC2);
  2631  001592  0E02               	movlw	2
  2632  001594  0101               	movlb	1	; () banked
  2633  001596  6F2C               	movwf	(write_ZIGBEE_long@address+1)& (0+255),b
  2634  001598  0E00               	movlw	0
  2635  00159A  6F2B               	movwf	write_ZIGBEE_long@address& (0+255),b
  2636  00159C  0EC2               	movlw	194
  2637  00159E  6F2D               	movwf	write_ZIGBEE_long@data_r& (0+255),b
  2638  0015A0  ECFF  F00D         	call	_write_ZIGBEE_long	;wreg free
  2639                           
  2640                           ;zigbee.c: 218: break;
  2641  0015A4  D050               	goto	l446
  2642  0015A6                     
  2643                           ;zigbee.c: 220: write_ZIGBEE_long(0x200, 0xD2);
  2644  0015A6  0E02               	movlw	2
  2645  0015A8  0101               	movlb	1	; () banked
  2646  0015AA  6F2C               	movwf	(write_ZIGBEE_long@address+1)& (0+255),b
  2647  0015AC  0E00               	movlw	0
  2648  0015AE  6F2B               	movwf	write_ZIGBEE_long@address& (0+255),b
  2649  0015B0  0ED2               	movlw	210
  2650  0015B2  6F2D               	movwf	write_ZIGBEE_long@data_r& (0+255),b
  2651  0015B4  ECFF  F00D         	call	_write_ZIGBEE_long	;wreg free
  2652                           
  2653                           ;zigbee.c: 221: break;
  2654  0015B8  D046               	goto	l446
  2655  0015BA                     
  2656                           ;zigbee.c: 223: write_ZIGBEE_long(0x200, 0xE2);
  2657  0015BA  0E02               	movlw	2
  2658  0015BC  0101               	movlb	1	; () banked
  2659  0015BE  6F2C               	movwf	(write_ZIGBEE_long@address+1)& (0+255),b
  2660  0015C0  0E00               	movlw	0
  2661  0015C2  6F2B               	movwf	write_ZIGBEE_long@address& (0+255),b
  2662  0015C4  0EE2               	movlw	226
  2663  0015C6  6F2D               	movwf	write_ZIGBEE_long@data_r& (0+255),b
  2664  0015C8  ECFF  F00D         	call	_write_ZIGBEE_long	;wreg free
  2665                           
  2666                           ;zigbee.c: 224: break;
  2667  0015CC  D03C               	goto	l446
  2668  0015CE                     
  2669                           ;zigbee.c: 226: write_ZIGBEE_long(0x200, 0xF2);
  2670  0015CE  0E02               	movlw	2
  2671  0015D0  0101               	movlb	1	; () banked
  2672  0015D2  6F2C               	movwf	(write_ZIGBEE_long@address+1)& (0+255),b
  2673  0015D4  0E00               	movlw	0
  2674  0015D6  6F2B               	movwf	write_ZIGBEE_long@address& (0+255),b
  2675  0015D8  0EF2               	movlw	242
  2676  0015DA  6F2D               	movwf	write_ZIGBEE_long@data_r& (0+255),b
  2677  0015DC  ECFF  F00D         	call	_write_ZIGBEE_long	;wreg free
  2678                           
  2679                           ;zigbee.c: 228: }
  2680                           
  2681                           ;zigbee.c: 227: break;
  2682  0015E0  D032               	goto	l446
  2683  0015E2                     l444:
  2684  0015E2  0101               	movlb	1	; () banked
  2685  0015E4  5132               	movf	set_channel@channel_number& (0+255),w,b
  2686                           
  2687                           ; Switch size 1, requested type "space"
  2688                           ; Number of cases is 16, Range of values is 11 to 26
  2689                           ; switch strategies available:
  2690                           ; Name         Instructions Cycles
  2691                           ; simple_byte           49    25 (average)
  2692                           ;	Chosen strategy is simple_byte
  2693  0015E6  0A0B               	xorlw	11	; case 11
  2694  0015E8  B4D8               	btfsc	status,2,c
  2695  0015EA  D75C               	goto	l445
  2696  0015EC  0A07               	xorlw	7	; case 12
  2697  0015EE  B4D8               	btfsc	status,2,c
  2698  0015F0  D762               	goto	l447
  2699  0015F2  0A01               	xorlw	1	; case 13
  2700  0015F4  B4D8               	btfsc	status,2,c
  2701  0015F6  D769               	goto	l448
  2702  0015F8  0A03               	xorlw	3	; case 14
  2703  0015FA  B4D8               	btfsc	status,2,c
  2704  0015FC  D770               	goto	l449
  2705  0015FE  0A01               	xorlw	1	; case 15
  2706  001600  B4D8               	btfsc	status,2,c
  2707  001602  D777               	goto	l450
  2708  001604  0A1F               	xorlw	31	; case 16
  2709  001606  B4D8               	btfsc	status,2,c
  2710  001608  D77E               	goto	l451
  2711  00160A  0A01               	xorlw	1	; case 17
  2712  00160C  B4D8               	btfsc	status,2,c
  2713  00160E  D785               	goto	l452
  2714  001610  0A03               	xorlw	3	; case 18
  2715  001612  B4D8               	btfsc	status,2,c
  2716  001614  D78C               	goto	l453
  2717  001616  0A01               	xorlw	1	; case 19
  2718  001618  B4D8               	btfsc	status,2,c
  2719  00161A  D793               	goto	l454
  2720  00161C  0A07               	xorlw	7	; case 20
  2721  00161E  B4D8               	btfsc	status,2,c
  2722  001620  D79A               	goto	l455
  2723  001622  0A01               	xorlw	1	; case 21
  2724  001624  B4D8               	btfsc	status,2,c
  2725  001626  D7A1               	goto	l456
  2726  001628  0A03               	xorlw	3	; case 22
  2727  00162A  B4D8               	btfsc	status,2,c
  2728  00162C  D7A8               	goto	l457
  2729  00162E  0A01               	xorlw	1	; case 23
  2730  001630  B4D8               	btfsc	status,2,c
  2731  001632  D7AF               	goto	l458
  2732  001634  0A0F               	xorlw	15	; case 24
  2733  001636  B4D8               	btfsc	status,2,c
  2734  001638  D7B6               	goto	l459
  2735  00163A  0A01               	xorlw	1	; case 25
  2736  00163C  B4D8               	btfsc	status,2,c
  2737  00163E  D7BD               	goto	l460
  2738  001640  0A03               	xorlw	3	; case 26
  2739  001642  B4D8               	btfsc	status,2,c
  2740  001644  D7C4               	goto	l461
  2741  001646                     l446:
  2742                           
  2743                           ;zigbee.c: 229: RF_reset();
  2744                           
  2745                           ; BSR set to: 1
  2746  001646  ECF1  F00F         	call	_RF_reset	;wreg free
  2747  00164A  0012               	return		;funcret
  2748  00164C                     __end_of_set_channel:
  2749                           	opt stack 0
  2750                           tblptru	equ	0xFF8
  2751                           tblptrh	equ	0xFF7
  2752                           tblptrl	equ	0xFF6
  2753                           tablat	equ	0xFF5
  2754                           prodh	equ	0xFF4
  2755                           prodl	equ	0xFF3
  2756                           intcon	equ	0xFF2
  2757                           postinc0	equ	0xFEE
  2758                           wreg	equ	0xFE8
  2759                           postdec1	equ	0xFE5
  2760                           fsr1l	equ	0xFE1
  2761                           indf2	equ	0xFDF
  2762                           fsr2h	equ	0xFDA
  2763                           fsr2l	equ	0xFD9
  2764                           status	equ	0xFD8
  2765                           
  2766 ;; *************** function _RF_reset *****************
  2767 ;; Defined at:
  2768 ;;		line 52 in file "zigbee.c"
  2769 ;; Parameters:    Size  Location     Type
  2770 ;;		None
  2771 ;; Auto vars:     Size  Location     Type
  2772 ;;		None
  2773 ;; Return value:  Size  Location     Type
  2774 ;;                  1    wreg      void 
  2775 ;; Registers used:
  2776 ;;		wreg, status,2, status,0, cstack
  2777 ;; Tracked objects:
  2778 ;;		On entry : 0/0
  2779 ;;		On exit  : 0/0
  2780 ;;		Unchanged: 0/0
  2781 ;; Data sizes:     COMRAM   BANK0   BANK1   BANK2   BANK3   BANK4   BANK5   BANK6   BANK7   BANK8   BANK9  BANK10  BANK1
      +1  BANK12  BANK13  BANK14  BANK15
  2782 ;;      Params:         0       0       0       0       0       0       0       0       0       0       0       0       
      +0       0       0       0       0
  2783 ;;      Locals:         0       0       0       0       0       0       0       0       0       0       0       0       
      +0       0       0       0       0
  2784 ;;      Temps:          0       0       0       0       0       0       0       0       0       0       0       0       
      +0       0       0       0       0
  2785 ;;      Totals:         0       0       0       0       0       0       0       0       0       0       0       0       
      +0       0       0       0       0
  2786 ;;Total ram usage:        0 bytes
  2787 ;; Hardware stack levels used:    1
  2788 ;; Hardware stack levels required when called:   11
  2789 ;; This function calls:
  2790 ;;		_Delay_ms
  2791 ;;		_write_ZIGBEE_short
  2792 ;; This function is called by:
  2793 ;;		_init_ZIGBEE_nonbeacon
  2794 ;;		_set_channel
  2795 ;;		_main
  2796 ;; This function uses a non-reentrant model
  2797 ;;
  2798                           
  2799                           	psect	text12
  2800  001FE2                     __ptext12:
  2801                           	opt stack 0
  2802  001FE2                     _RF_reset:
  2803                           	opt stack 17
  2804                           
  2805                           ;zigbee.c: 53: write_ZIGBEE_short(0x36,0x04);
  2806                           
  2807                           ;incstack = 0
  2808  001FE2  0E04               	movlw	4
  2809  001FE4  0101               	movlb	1	; () banked
  2810  001FE6  6F2B               	movwf	write_ZIGBEE_short@data_r& (0+255),b
  2811  001FE8  0E36               	movlw	54
  2812  001FEA  EC2B  F010         	call	_write_ZIGBEE_short
  2813                           
  2814                           ;zigbee.c: 54: write_ZIGBEE_short(0x36,(!0x04));
  2815  001FEE  0E00               	movlw	0
  2816  001FF0  0101               	movlb	1	; () banked
  2817  001FF2  6F2B               	movwf	write_ZIGBEE_short@data_r& (0+255),b
  2818  001FF4  0E36               	movlw	54
  2819  001FF6  EC2B  F010         	call	_write_ZIGBEE_short
  2820                           
  2821                           ;zigbee.c: 55: Delay_ms(20);
  2822  001FFA  0E00               	movlw	0
  2823  001FFC  0101               	movlb	1	; () banked
  2824  001FFE  6F2A               	movwf	(Delay_ms@time+1)& (0+255),b
  2825  002000  0E14               	movlw	20
  2826  002002  6F29               	movwf	Delay_ms@time& (0+255),b
  2827  002004  ECD3  F010         	call	_Delay_ms	;wreg free
  2828  002008  0012               	return		;funcret
  2829  00200A                     __end_of_RF_reset:
  2830                           	opt stack 0
  2831                           tblptru	equ	0xFF8
  2832                           tblptrh	equ	0xFF7
  2833                           tblptrl	equ	0xFF6
  2834                           tablat	equ	0xFF5
  2835                           prodh	equ	0xFF4
  2836                           prodl	equ	0xFF3
  2837                           intcon	equ	0xFF2
  2838                           postinc0	equ	0xFEE
  2839                           wreg	equ	0xFE8
  2840                           postdec1	equ	0xFE5
  2841                           fsr1l	equ	0xFE1
  2842                           indf2	equ	0xFDF
  2843                           fsr2h	equ	0xFDA
  2844                           fsr2l	equ	0xFD9
  2845                           status	equ	0xFD8
  2846                           
  2847 ;; *************** function _set_RSSI_mode *****************
  2848 ;; Defined at:
  2849 ;;		line 149 in file "zigbee.c"
  2850 ;; Parameters:    Size  Location     Type
  2851 ;;  RSSI_mode       1    wreg     unsigned char 
  2852 ;; Auto vars:     Size  Location     Type
  2853 ;;  RSSI_mode       1    4[BANK1 ] unsigned char 
  2854 ;;  temp            1    5[BANK1 ] unsigned char 
  2855 ;; Return value:  Size  Location     Type
  2856 ;;                  1    wreg      void 
  2857 ;; Registers used:
  2858 ;;		wreg, status,2, status,0, cstack
  2859 ;; Tracked objects:
  2860 ;;		On entry : 0/0
  2861 ;;		On exit  : 0/0
  2862 ;;		Unchanged: 0/0
  2863 ;; Data sizes:     COMRAM   BANK0   BANK1   BANK2   BANK3   BANK4   BANK5   BANK6   BANK7   BANK8   BANK9  BANK10  BANK1
      +1  BANK12  BANK13  BANK14  BANK15
  2864 ;;      Params:         0       0       0       0       0       0       0       0       0       0       0       0       
      +0       0       0       0       0
  2865 ;;      Locals:         0       0       2       0       0       0       0       0       0       0       0       0       
      +0       0       0       0       0
  2866 ;;      Temps:          0       0       0       0       0       0       0       0       0       0       0       0       
      +0       0       0       0       0
  2867 ;;      Totals:         0       0       2       0       0       0       0       0       0       0       0       0       
      +0       0       0       0       0
  2868 ;;Total ram usage:        2 bytes
  2869 ;; Hardware stack levels used:    1
  2870 ;; Hardware stack levels required when called:   11
  2871 ;; This function calls:
  2872 ;;		_write_ZIGBEE_short
  2873 ;; This function is called by:
  2874 ;;		_init_ZIGBEE_nonbeacon
  2875 ;; This function uses a non-reentrant model
  2876 ;;
  2877                           
  2878                           	psect	text13
  2879  001D7E                     __ptext13:
  2880                           	opt stack 0
  2881  001D7E                     _set_RSSI_mode:
  2882                           	opt stack 18
  2883                           
  2884                           ;incstack = 0
  2885                           ;set_RSSI_mode@RSSI_mode stored from wreg
  2886  001D7E  0101               	movlb	1	; () banked
  2887  001D80  6F2D               	movwf	set_RSSI_mode@RSSI_mode& (0+255),b
  2888                           
  2889                           ;zigbee.c: 151: unsigned char temp = 0;
  2890  001D82  0E00               	movlw	0
  2891  001D84  0101               	movlb	1	; () banked
  2892  001D86  6F2E               	movwf	set_RSSI_mode@temp& (0+255),b
  2893                           
  2894                           ;zigbee.c: 152: switch(RSSI_mode)
  2895  001D88  D012               	goto	l431
  2896  001D8A                     
  2897                           ; BSR set to: 1
  2898                           ;zigbee.c: 155: {
  2899                           ;zigbee.c: 156: temp=0;
  2900                           
  2901                           ; BSR set to: 1
  2902  001D8A  0E00               	movlw	0
  2903  001D8C  6F2E               	movwf	set_RSSI_mode@temp& (0+255),b
  2904                           
  2905                           ; BSR set to: 1
  2906                           ;zigbee.c: 157: temp = temp | 0x80;
  2907  001D8E  512E               	movf	set_RSSI_mode@temp& (0+255),w,b
  2908  001D90  0980               	iorlw	128
  2909  001D92  6F2E               	movwf	set_RSSI_mode@temp& (0+255),b
  2910                           
  2911                           ; BSR set to: 1
  2912                           ;zigbee.c: 158: write_ZIGBEE_short(0x3E, temp);
  2913  001D94  C12E  F12B         	movff	set_RSSI_mode@temp,write_ZIGBEE_short@data_r
  2914  001D98  0E3E               	movlw	62
  2915  001D9A  EC2B  F010         	call	_write_ZIGBEE_short
  2916                           
  2917                           ;zigbee.c: 159: }
  2918                           ;zigbee.c: 160: break;
  2919  001D9E  0012               	return	
  2920  001DA0                     
  2921                           ;zigbee.c: 163: write_ZIGBEE_short(0x3E, 0x40);
  2922  001DA0  0E40               	movlw	64
  2923  001DA2  0101               	movlb	1	; () banked
  2924  001DA4  6F2B               	movwf	write_ZIGBEE_short@data_r& (0+255),b
  2925  001DA6  0E3E               	movlw	62
  2926  001DA8  EC2B  F010         	call	_write_ZIGBEE_short
  2927                           
  2928                           ;zigbee.c: 165: }
  2929                           
  2930                           ;zigbee.c: 164: break;
  2931  001DAC  0012               	return	
  2932  001DAE                     l431:
  2933  001DAE  0101               	movlb	1	; () banked
  2934  001DB0  512D               	movf	set_RSSI_mode@RSSI_mode& (0+255),w,b
  2935                           
  2936                           ; Switch size 1, requested type "space"
  2937                           ; Number of cases is 2, Range of values is 1 to 2
  2938                           ; switch strategies available:
  2939                           ; Name         Instructions Cycles
  2940                           ; simple_byte            7     4 (average)
  2941                           ;	Chosen strategy is simple_byte
  2942  001DB2  0A01               	xorlw	1	; case 1
  2943  001DB4  B4D8               	btfsc	status,2,c
  2944  001DB6  D7E9               	goto	l432
  2945  001DB8  0A03               	xorlw	3	; case 2
  2946  001DBA  A4D8               	btfss	status,2,c
  2947  001DBC  0012               	return	
  2948  001DBE  D7F0               	goto	l434
  2949  001DC0                     __end_of_set_RSSI_mode:
  2950                           	opt stack 0
  2951                           tblptru	equ	0xFF8
  2952                           tblptrh	equ	0xFF7
  2953                           tblptrl	equ	0xFF6
  2954                           tablat	equ	0xFF5
  2955                           prodh	equ	0xFF4
  2956                           prodl	equ	0xFF3
  2957                           intcon	equ	0xFF2
  2958                           postinc0	equ	0xFEE
  2959                           wreg	equ	0xFE8
  2960                           postdec1	equ	0xFE5
  2961                           fsr1l	equ	0xFE1
  2962                           indf2	equ	0xFDF
  2963                           fsr2h	equ	0xFDA
  2964                           fsr2l	equ	0xFD9
  2965                           status	equ	0xFD8
  2966                           
  2967 ;; *************** function _set_CCA_mode *****************
  2968 ;; Defined at:
  2969 ;;		line 102 in file "zigbee.c"
  2970 ;; Parameters:    Size  Location     Type
  2971 ;;  CCA_mode        1    wreg     unsigned char 
  2972 ;; Auto vars:     Size  Location     Type
  2973 ;;  CCA_mode        1    4[BANK1 ] unsigned char 
  2974 ;;  temp            1    5[BANK1 ] unsigned char 
  2975 ;; Return value:  Size  Location     Type
  2976 ;;                  1    wreg      void 
  2977 ;; Registers used:
  2978 ;;		wreg, status,2, status,0, cstack
  2979 ;; Tracked objects:
  2980 ;;		On entry : 0/0
  2981 ;;		On exit  : 0/0
  2982 ;;		Unchanged: 0/0
  2983 ;; Data sizes:     COMRAM   BANK0   BANK1   BANK2   BANK3   BANK4   BANK5   BANK6   BANK7   BANK8   BANK9  BANK10  BANK1
      +1  BANK12  BANK13  BANK14  BANK15
  2984 ;;      Params:         0       0       0       0       0       0       0       0       0       0       0       0       
      +0       0       0       0       0
  2985 ;;      Locals:         0       0       2       0       0       0       0       0       0       0       0       0       
      +0       0       0       0       0
  2986 ;;      Temps:          0       0       0       0       0       0       0       0       0       0       0       0       
      +0       0       0       0       0
  2987 ;;      Totals:         0       0       2       0       0       0       0       0       0       0       0       0       
      +0       0       0       0       0
  2988 ;;Total ram usage:        2 bytes
  2989 ;; Hardware stack levels used:    1
  2990 ;; Hardware stack levels required when called:   11
  2991 ;; This function calls:
  2992 ;;		_write_ZIGBEE_short
  2993 ;; This function is called by:
  2994 ;;		_init_ZIGBEE_nonbeacon
  2995 ;; This function uses a non-reentrant model
  2996 ;;
  2997                           
  2998                           	psect	text14
  2999  001888                     __ptext14:
  3000                           	opt stack 0
  3001  001888                     _set_CCA_mode:
  3002                           	opt stack 18
  3003                           
  3004                           ;incstack = 0
  3005                           ;set_CCA_mode@CCA_mode stored from wreg
  3006  001888  0101               	movlb	1	; () banked
  3007  00188A  6F2D               	movwf	set_CCA_mode@CCA_mode& (0+255),b
  3008                           
  3009                           ;zigbee.c: 104: unsigned char temp = 0;
  3010  00188C  0E00               	movlw	0
  3011  00188E  0101               	movlb	1	; () banked
  3012  001890  6F2E               	movwf	set_CCA_mode@temp& (0+255),b
  3013                           
  3014                           ;zigbee.c: 105: switch(CCA_mode)
  3015  001892  D051               	goto	l423
  3016  001894                     
  3017                           ; BSR set to: 1
  3018                           ;zigbee.c: 108: {
  3019                           ;zigbee.c: 109: temp=0;
  3020                           
  3021                           ; BSR set to: 1
  3022  001894  0E00               	movlw	0
  3023  001896  6F2E               	movwf	set_CCA_mode@temp& (0+255),b
  3024                           
  3025                           ; BSR set to: 1
  3026                           ;zigbee.c: 110: temp = temp | 0x80;
  3027  001898  512E               	movf	set_CCA_mode@temp& (0+255),w,b
  3028  00189A  0980               	iorlw	128
  3029  00189C  6F2E               	movwf	set_CCA_mode@temp& (0+255),b
  3030                           
  3031                           ; BSR set to: 1
  3032                           ;zigbee.c: 111: temp = temp & 0xDF;
  3033  00189E  512E               	movf	set_CCA_mode@temp& (0+255),w,b
  3034  0018A0  0BDF               	andlw	223
  3035  0018A2  6F2E               	movwf	set_CCA_mode@temp& (0+255),b
  3036                           
  3037                           ; BSR set to: 1
  3038                           ;zigbee.c: 112: write_ZIGBEE_short(0x3A, temp);
  3039  0018A4  C12E  F12B         	movff	set_CCA_mode@temp,write_ZIGBEE_short@data_r
  3040  0018A8  0E3A               	movlw	58
  3041  0018AA  EC2B  F010         	call	_write_ZIGBEE_short
  3042                           
  3043                           ;zigbee.c: 113: write_ZIGBEE_short(0x3F, 0x60);
  3044  0018AE  0E60               	movlw	96
  3045  0018B0  0101               	movlb	1	; () banked
  3046  0018B2  6F2B               	movwf	write_ZIGBEE_short@data_r& (0+255),b
  3047  0018B4  0E3F               	movlw	63
  3048  0018B6  EC2B  F010         	call	_write_ZIGBEE_short
  3049                           
  3050                           ;zigbee.c: 114: }
  3051                           ;zigbee.c: 115: break;
  3052  0018BA  0012               	return	
  3053  0018BC                     
  3054                           ;zigbee.c: 118: {
  3055                           ;zigbee.c: 119: temp=0;
  3056  0018BC  0E00               	movlw	0
  3057  0018BE  0101               	movlb	1	; () banked
  3058  0018C0  6F2E               	movwf	set_CCA_mode@temp& (0+255),b
  3059                           
  3060                           ; BSR set to: 1
  3061                           ;zigbee.c: 120: temp = temp | 0x40;
  3062  0018C2  512E               	movf	set_CCA_mode@temp& (0+255),w,b
  3063  0018C4  0940               	iorlw	64
  3064  0018C6  6F2E               	movwf	set_CCA_mode@temp& (0+255),b
  3065                           
  3066                           ; BSR set to: 1
  3067                           ;zigbee.c: 121: temp = temp & 0x7F;
  3068  0018C8  512E               	movf	set_CCA_mode@temp& (0+255),w,b
  3069  0018CA  0B7F               	andlw	127
  3070  0018CC  6F2E               	movwf	set_CCA_mode@temp& (0+255),b
  3071                           
  3072                           ; BSR set to: 1
  3073                           ;zigbee.c: 122: write_ZIGBEE_short(0x3A, temp);
  3074  0018CE  C12E  F12B         	movff	set_CCA_mode@temp,write_ZIGBEE_short@data_r
  3075  0018D2  0E3A               	movlw	58
  3076  0018D4  EC2B  F010         	call	_write_ZIGBEE_short
  3077                           
  3078                           ;zigbee.c: 124: temp=0;
  3079  0018D8  0E00               	movlw	0
  3080  0018DA  0101               	movlb	1	; () banked
  3081  0018DC  6F2E               	movwf	set_CCA_mode@temp& (0+255),b
  3082                           
  3083                           ; BSR set to: 1
  3084                           ;zigbee.c: 125: temp = temp | 0x38;
  3085  0018DE  512E               	movf	set_CCA_mode@temp& (0+255),w,b
  3086  0018E0  0938               	iorlw	56
  3087  0018E2  6F2E               	movwf	set_CCA_mode@temp& (0+255),b
  3088                           
  3089                           ; BSR set to: 1
  3090                           ;zigbee.c: 126: temp = temp & 0xFB;
  3091  0018E4  512E               	movf	set_CCA_mode@temp& (0+255),w,b
  3092  0018E6  0BFB               	andlw	251
  3093  0018E8  6F2E               	movwf	set_CCA_mode@temp& (0+255),b
  3094                           
  3095                           ;zigbee.c: 127: write_ZIGBEE_short(0x3A, temp);
  3096  0018EA  C12E  F12B         	movff	set_CCA_mode@temp,write_ZIGBEE_short@data_r
  3097  0018EE  0E3A               	movlw	58
  3098  0018F0  EC2B  F010         	call	_write_ZIGBEE_short
  3099                           
  3100                           ;zigbee.c: 128: }
  3101                           ;zigbee.c: 129: break;
  3102  0018F4  0012               	return	
  3103  0018F6                     
  3104                           ;zigbee.c: 132: {
  3105                           ;zigbee.c: 133: temp=0;
  3106  0018F6  0E00               	movlw	0
  3107  0018F8  0101               	movlb	1	; () banked
  3108  0018FA  6F2E               	movwf	set_CCA_mode@temp& (0+255),b
  3109                           
  3110                           ; BSR set to: 1
  3111                           ;zigbee.c: 134: temp = temp | 0xC0;
  3112  0018FC  512E               	movf	set_CCA_mode@temp& (0+255),w,b
  3113  0018FE  09C0               	iorlw	192
  3114  001900  6F2E               	movwf	set_CCA_mode@temp& (0+255),b
  3115                           
  3116                           ; BSR set to: 1
  3117                           ;zigbee.c: 135: write_ZIGBEE_short(0x3A, temp);
  3118  001902  C12E  F12B         	movff	set_CCA_mode@temp,write_ZIGBEE_short@data_r
  3119  001906  0E3A               	movlw	58
  3120  001908  EC2B  F010         	call	_write_ZIGBEE_short
  3121                           
  3122                           ;zigbee.c: 137: temp=0;
  3123  00190C  0E00               	movlw	0
  3124  00190E  0101               	movlb	1	; () banked
  3125  001910  6F2E               	movwf	set_CCA_mode@temp& (0+255),b
  3126                           
  3127                           ; BSR set to: 1
  3128                           ;zigbee.c: 138: temp = temp | 0x38;
  3129  001912  512E               	movf	set_CCA_mode@temp& (0+255),w,b
  3130  001914  0938               	iorlw	56
  3131  001916  6F2E               	movwf	set_CCA_mode@temp& (0+255),b
  3132                           
  3133                           ; BSR set to: 1
  3134                           ;zigbee.c: 139: temp = temp & 0xFB;
  3135  001918  512E               	movf	set_CCA_mode@temp& (0+255),w,b
  3136  00191A  0BFB               	andlw	251
  3137  00191C  6F2E               	movwf	set_CCA_mode@temp& (0+255),b
  3138                           
  3139                           ; BSR set to: 1
  3140                           ;zigbee.c: 140: write_ZIGBEE_short(0x3A, temp);
  3141  00191E  C12E  F12B         	movff	set_CCA_mode@temp,write_ZIGBEE_short@data_r
  3142  001922  0E3A               	movlw	58
  3143  001924  EC2B  F010         	call	_write_ZIGBEE_short
  3144                           
  3145                           ;zigbee.c: 142: write_ZIGBEE_short(0x3F, 0x60);
  3146  001928  0E60               	movlw	96
  3147  00192A  0101               	movlb	1	; () banked
  3148  00192C  6F2B               	movwf	write_ZIGBEE_short@data_r& (0+255),b
  3149  00192E  0E3F               	movlw	63
  3150  001930  EC2B  F010         	call	_write_ZIGBEE_short
  3151                           
  3152                           ;zigbee.c: 145: }
  3153                           
  3154                           ;zigbee.c: 143: }
  3155                           ;zigbee.c: 144: break;
  3156  001934  0012               	return	
  3157  001936                     l423:
  3158  001936  0101               	movlb	1	; () banked
  3159  001938  512D               	movf	set_CCA_mode@CCA_mode& (0+255),w,b
  3160                           
  3161                           ; Switch size 1, requested type "space"
  3162                           ; Number of cases is 3, Range of values is 1 to 3
  3163                           ; switch strategies available:
  3164                           ; Name         Instructions Cycles
  3165                           ; simple_byte           10     6 (average)
  3166                           ;	Chosen strategy is simple_byte
  3167  00193A  0A01               	xorlw	1	; case 1
  3168  00193C  B4D8               	btfsc	status,2,c
  3169  00193E  D7AA               	goto	l424
  3170  001940  0A03               	xorlw	3	; case 2
  3171  001942  B4D8               	btfsc	status,2,c
  3172  001944  D7BB               	goto	l426
  3173  001946  0A01               	xorlw	1	; case 3
  3174  001948  A4D8               	btfss	status,2,c
  3175  00194A  0012               	return	
  3176  00194C  D7D4               	goto	l427
  3177  00194E                     __end_of_set_CCA_mode:
  3178                           	opt stack 0
  3179                           tblptru	equ	0xFF8
  3180                           tblptrh	equ	0xFF7
  3181                           tblptrl	equ	0xFF6
  3182                           tablat	equ	0xFF5
  3183                           prodh	equ	0xFF4
  3184                           prodl	equ	0xFF3
  3185                           intcon	equ	0xFF2
  3186                           postinc0	equ	0xFEE
  3187                           wreg	equ	0xFE8
  3188                           postdec1	equ	0xFE5
  3189                           fsr1l	equ	0xFE1
  3190                           indf2	equ	0xFDF
  3191                           fsr2h	equ	0xFDA
  3192                           fsr2l	equ	0xFD9
  3193                           status	equ	0xFD8
  3194                           
  3195 ;; *************** function _pin_wake *****************
  3196 ;; Defined at:
  3197 ;;		line 231 in file "zigbee.c"
  3198 ;; Parameters:    Size  Location     Type
  3199 ;;		None
  3200 ;; Auto vars:     Size  Location     Type
  3201 ;;		None
  3202 ;; Return value:  Size  Location     Type
  3203 ;;                  1    wreg      void 
  3204 ;; Registers used:
  3205 ;;		wreg, status,2, status,0, cstack
  3206 ;; Tracked objects:
  3207 ;;		On entry : 0/0
  3208 ;;		On exit  : 0/0
  3209 ;;		Unchanged: 0/0
  3210 ;; Data sizes:     COMRAM   BANK0   BANK1   BANK2   BANK3   BANK4   BANK5   BANK6   BANK7   BANK8   BANK9  BANK10  BANK1
      +1  BANK12  BANK13  BANK14  BANK15
  3211 ;;      Params:         0       0       0       0       0       0       0       0       0       0       0       0       
      +0       0       0       0       0
  3212 ;;      Locals:         0       0       0       0       0       0       0       0       0       0       0       0       
      +0       0       0       0       0
  3213 ;;      Temps:          0       0       0       0       0       0       0       0       0       0       0       0       
      +0       0       0       0       0
  3214 ;;      Totals:         0       0       0       0       0       0       0       0       0       0       0       0       
      +0       0       0       0       0
  3215 ;;Total ram usage:        0 bytes
  3216 ;; Hardware stack levels used:    1
  3217 ;; Hardware stack levels required when called:   10
  3218 ;; This function calls:
  3219 ;;		_Delay_ms
  3220 ;; This function is called by:
  3221 ;;		_init_ZIGBEE_nonbeacon
  3222 ;;		_main
  3223 ;; This function uses a non-reentrant model
  3224 ;;
  3225                           
  3226                           	psect	text15
  3227  002296                     __ptext15:
  3228                           	opt stack 0
  3229  002296                     _pin_wake:
  3230                           	opt stack 20
  3231                           
  3232                           ;zigbee.c: 232: PORTFbits.RF2=1;
  3233                           
  3234                           ;incstack = 0
  3235  002296  8485               	bsf	3973,2,c	;volatile
  3236                           
  3237                           ;zigbee.c: 233: Delay_ms(10);
  3238  002298  0E00               	movlw	0
  3239  00229A  0101               	movlb	1	; () banked
  3240  00229C  6F2A               	movwf	(Delay_ms@time+1)& (0+255),b
  3241  00229E  0E0A               	movlw	10
  3242  0022A0  6F29               	movwf	Delay_ms@time& (0+255),b
  3243  0022A2  ECD3  F010         	call	_Delay_ms	;wreg free
  3244  0022A6  0012               	return		;funcret
  3245  0022A8                     __end_of_pin_wake:
  3246                           	opt stack 0
  3247                           tblptru	equ	0xFF8
  3248                           tblptrh	equ	0xFF7
  3249                           tblptrl	equ	0xFF6
  3250                           tablat	equ	0xFF5
  3251                           prodh	equ	0xFF4
  3252                           prodl	equ	0xFF3
  3253                           intcon	equ	0xFF2
  3254                           postinc0	equ	0xFEE
  3255                           wreg	equ	0xFE8
  3256                           postdec1	equ	0xFE5
  3257                           fsr1l	equ	0xFE1
  3258                           indf2	equ	0xFDF
  3259                           fsr2h	equ	0xFDA
  3260                           fsr2l	equ	0xFD9
  3261                           status	equ	0xFD8
  3262                           
  3263 ;; *************** function _Delay_ms *****************
  3264 ;; Defined at:
  3265 ;;		line 475 in file "zigbee.c"
  3266 ;; Parameters:    Size  Location     Type
  3267 ;;  time            2    0[BANK1 ] unsigned int 
  3268 ;; Auto vars:     Size  Location     Type
  3269 ;;  y               2    2[BANK1 ] unsigned int 
  3270 ;;  x               2    0        unsigned int 
  3271 ;; Return value:  Size  Location     Type
  3272 ;;                  1    wreg      void 
  3273 ;; Registers used:
  3274 ;;		wreg, status,2, status,0
  3275 ;; Tracked objects:
  3276 ;;		On entry : 0/0
  3277 ;;		On exit  : 0/0
  3278 ;;		Unchanged: 0/0
  3279 ;; Data sizes:     COMRAM   BANK0   BANK1   BANK2   BANK3   BANK4   BANK5   BANK6   BANK7   BANK8   BANK9  BANK10  BANK1
      +1  BANK12  BANK13  BANK14  BANK15
  3280 ;;      Params:         0       0       2       0       0       0       0       0       0       0       0       0       
      +0       0       0       0       0
  3281 ;;      Locals:         0       0       2       0       0       0       0       0       0       0       0       0       
      +0       0       0       0       0
  3282 ;;      Temps:          0       0       0       0       0       0       0       0       0       0       0       0       
      +0       0       0       0       0
  3283 ;;      Totals:         0       0       4       0       0       0       0       0       0       0       0       0       
      +0       0       0       0       0
  3284 ;;Total ram usage:        4 bytes
  3285 ;; Hardware stack levels used:    1
  3286 ;; Hardware stack levels required when called:    9
  3287 ;; This function calls:
  3288 ;;		Nothing
  3289 ;; This function is called by:
  3290 ;;		_pin_reset
  3291 ;;		_RF_reset
  3292 ;;		_pin_wake
  3293 ;;		_main
  3294 ;; This function uses a non-reentrant model
  3295 ;;
  3296                           
  3297                           	psect	text16
  3298  0021A6                     __ptext16:
  3299                           	opt stack 0
  3300  0021A6                     _Delay_ms:
  3301                           	opt stack 20
  3302                           
  3303                           ;zigbee.c: 476: unsigned int x,y=0;
  3304                           
  3305                           ;incstack = 0
  3306  0021A6  0E00               	movlw	0
  3307  0021A8  0101               	movlb	1	; () banked
  3308  0021AA  6F2C               	movwf	(Delay_ms@y+1)& (0+255),b
  3309  0021AC  0E00               	movlw	0
  3310  0021AE  6F2B               	movwf	Delay_ms@y& (0+255),b
  3311  0021B0                     
  3312                           ; BSR set to: 1
  3313                           
  3314                           ; BSR set to: 1
  3315                           
  3316                           ; BSR set to: 1
  3317  0021B0  4B29               	infsnz	Delay_ms@time& (0+255),f,b
  3318  0021B2  2B2A               	incf	(Delay_ms@time+1)& (0+255),f,b
  3319  0021B4  0E10               	movlw	16
  3320  0021B6  5D29               	subwf	Delay_ms@time& (0+255),w,b
  3321  0021B8  0E27               	movlw	39
  3322  0021BA  592A               	subwfb	(Delay_ms@time+1)& (0+255),w,b
  3323  0021BC  B0D8               	btfsc	status,0,c
  3324  0021BE  0012               	return	
  3325  0021C0  D7F7               	goto	l545
  3326  0021C2                     __end_of_Delay_ms:
  3327                           	opt stack 0
  3328                           tblptru	equ	0xFF8
  3329                           tblptrh	equ	0xFF7
  3330                           tblptrl	equ	0xFF6
  3331                           tablat	equ	0xFF5
  3332                           prodh	equ	0xFF4
  3333                           prodl	equ	0xFF3
  3334                           intcon	equ	0xFF2
  3335                           postinc0	equ	0xFEE
  3336                           wreg	equ	0xFE8
  3337                           postdec1	equ	0xFE5
  3338                           fsr1l	equ	0xFE1
  3339                           indf2	equ	0xFDF
  3340                           fsr2h	equ	0xFDA
  3341                           fsr2l	equ	0xFD9
  3342                           status	equ	0xFD8
  3343                           
  3344 ;; *************** function _init_ZIGBEE_basic *****************
  3345 ;; Defined at:
  3346 ;;		line 85 in file "zigbee.c"
  3347 ;; Parameters:    Size  Location     Type
  3348 ;;		None
  3349 ;; Auto vars:     Size  Location     Type
  3350 ;;		None
  3351 ;; Return value:  Size  Location     Type
  3352 ;;                  1    wreg      void 
  3353 ;; Registers used:
  3354 ;;		wreg, status,2, status,0, cstack
  3355 ;; Tracked objects:
  3356 ;;		On entry : 0/0
  3357 ;;		On exit  : 0/0
  3358 ;;		Unchanged: 0/0
  3359 ;; Data sizes:     COMRAM   BANK0   BANK1   BANK2   BANK3   BANK4   BANK5   BANK6   BANK7   BANK8   BANK9  BANK10  BANK1
      +1  BANK12  BANK13  BANK14  BANK15
  3360 ;;      Params:         0       0       0       0       0       0       0       0       0       0       0       0       
      +0       0       0       0       0
  3361 ;;      Locals:         0       0       0       0       0       0       0       0       0       0       0       0       
      +0       0       0       0       0
  3362 ;;      Temps:          0       0       0       0       0       0       0       0       0       0       0       0       
      +0       0       0       0       0
  3363 ;;      Totals:         0       0       0       0       0       0       0       0       0       0       0       0       
      +0       0       0       0       0
  3364 ;;Total ram usage:        0 bytes
  3365 ;; Hardware stack levels used:    1
  3366 ;; Hardware stack levels required when called:   12
  3367 ;; This function calls:
  3368 ;;		_enable_PLL
  3369 ;;		_write_ZIGBEE_long
  3370 ;;		_write_ZIGBEE_short
  3371 ;; This function is called by:
  3372 ;;		_init_ZIGBEE_nonbeacon
  3373 ;; This function uses a non-reentrant model
  3374 ;;
  3375                           
  3376                           	psect	text17
  3377  001A06                     __ptext17:
  3378                           	opt stack 0
  3379  001A06                     _init_ZIGBEE_basic:
  3380                           	opt stack 17
  3381                           
  3382                           ;zigbee.c: 86: write_ZIGBEE_short(0x18, 0x98);
  3383                           
  3384                           ; BSR set to: 1
  3385                           ;incstack = 0
  3386  001A06  0E98               	movlw	152
  3387  001A08  0101               	movlb	1	; () banked
  3388  001A0A  6F2B               	movwf	write_ZIGBEE_short@data_r& (0+255),b
  3389  001A0C  0E18               	movlw	24
  3390  001A0E  EC2B  F010         	call	_write_ZIGBEE_short
  3391                           
  3392                           ;zigbee.c: 87: write_ZIGBEE_short(0x2E, 0x95);
  3393  001A12  0E95               	movlw	149
  3394  001A14  0101               	movlb	1	; () banked
  3395  001A16  6F2B               	movwf	write_ZIGBEE_short@data_r& (0+255),b
  3396  001A18  0E2E               	movlw	46
  3397  001A1A  EC2B  F010         	call	_write_ZIGBEE_short
  3398                           
  3399                           ;zigbee.c: 88: write_ZIGBEE_long(0x201, 0x01);
  3400  001A1E  0E02               	movlw	2
  3401  001A20  0101               	movlb	1	; () banked
  3402  001A22  6F2C               	movwf	(write_ZIGBEE_long@address+1)& (0+255),b
  3403  001A24  0E01               	movlw	1
  3404  001A26  6F2B               	movwf	write_ZIGBEE_long@address& (0+255),b
  3405  001A28  0E01               	movlw	1
  3406  001A2A  6F2D               	movwf	write_ZIGBEE_long@data_r& (0+255),b
  3407  001A2C  ECFF  F00D         	call	_write_ZIGBEE_long	;wreg free
  3408                           
  3409                           ;zigbee.c: 89: enable_PLL();
  3410  001A30  EC37  F011         	call	_enable_PLL	;wreg free
  3411                           
  3412                           ;zigbee.c: 90: write_ZIGBEE_long(0x206, 0x90);
  3413  001A34  0E02               	movlw	2
  3414  001A36  0101               	movlb	1	; () banked
  3415  001A38  6F2C               	movwf	(write_ZIGBEE_long@address+1)& (0+255),b
  3416  001A3A  0E06               	movlw	6
  3417  001A3C  6F2B               	movwf	write_ZIGBEE_long@address& (0+255),b
  3418  001A3E  0E90               	movlw	144
  3419  001A40  6F2D               	movwf	write_ZIGBEE_long@data_r& (0+255),b
  3420  001A42  ECFF  F00D         	call	_write_ZIGBEE_long	;wreg free
  3421                           
  3422                           ;zigbee.c: 91: write_ZIGBEE_long(0x207, 0x80);
  3423  001A46  0E02               	movlw	2
  3424  001A48  0101               	movlb	1	; () banked
  3425  001A4A  6F2C               	movwf	(write_ZIGBEE_long@address+1)& (0+255),b
  3426  001A4C  0E07               	movlw	7
  3427  001A4E  6F2B               	movwf	write_ZIGBEE_long@address& (0+255),b
  3428  001A50  0E80               	movlw	128
  3429  001A52  6F2D               	movwf	write_ZIGBEE_long@data_r& (0+255),b
  3430  001A54  ECFF  F00D         	call	_write_ZIGBEE_long	;wreg free
  3431                           
  3432                           ;zigbee.c: 92: write_ZIGBEE_long(0x208, 0x10);
  3433  001A58  0E02               	movlw	2
  3434  001A5A  0101               	movlb	1	; () banked
  3435  001A5C  6F2C               	movwf	(write_ZIGBEE_long@address+1)& (0+255),b
  3436  001A5E  0E08               	movlw	8
  3437  001A60  6F2B               	movwf	write_ZIGBEE_long@address& (0+255),b
  3438  001A62  0E10               	movlw	16
  3439  001A64  6F2D               	movwf	write_ZIGBEE_long@data_r& (0+255),b
  3440  001A66  ECFF  F00D         	call	_write_ZIGBEE_long	;wreg free
  3441                           
  3442                           ;zigbee.c: 93: write_ZIGBEE_short(0x211,0X02);
  3443  001A6A  0E02               	movlw	2
  3444  001A6C  0101               	movlb	1	; () banked
  3445  001A6E  6F2B               	movwf	write_ZIGBEE_short@data_r& (0+255),b
  3446  001A70  0E11               	movlw	17
  3447  001A72  EC2B  F010         	call	_write_ZIGBEE_short
  3448                           
  3449                           ;zigbee.c: 94: write_ZIGBEE_long(0x220, 0x21);
  3450  001A76  0E02               	movlw	2
  3451  001A78  0101               	movlb	1	; () banked
  3452  001A7A  6F2C               	movwf	(write_ZIGBEE_long@address+1)& (0+255),b
  3453  001A7C  0E20               	movlw	32
  3454  001A7E  6F2B               	movwf	write_ZIGBEE_long@address& (0+255),b
  3455  001A80  0E21               	movlw	33
  3456  001A82  6F2D               	movwf	write_ZIGBEE_long@data_r& (0+255),b
  3457  001A84  ECFF  F00D         	call	_write_ZIGBEE_long	;wreg free
  3458                           
  3459                           ;zigbee.c: 95: write_ZIGBEE_long(0x22F, 0x0F);
  3460  001A88  0E02               	movlw	2
  3461  001A8A  0101               	movlb	1	; () banked
  3462  001A8C  6F2C               	movwf	(write_ZIGBEE_long@address+1)& (0+255),b
  3463  001A8E  0E2F               	movlw	47
  3464  001A90  6F2B               	movwf	write_ZIGBEE_long@address& (0+255),b
  3465  001A92  0E0F               	movlw	15
  3466  001A94  6F2D               	movwf	write_ZIGBEE_long@data_r& (0+255),b
  3467  001A96  ECFF  F00D         	call	_write_ZIGBEE_long	;wreg free
  3468  001A9A  0012               	return		;funcret
  3469  001A9C                     __end_of_init_ZIGBEE_basic:
  3470                           	opt stack 0
  3471                           tblptru	equ	0xFF8
  3472                           tblptrh	equ	0xFF7
  3473                           tblptrl	equ	0xFF6
  3474                           tablat	equ	0xFF5
  3475                           prodh	equ	0xFF4
  3476                           prodl	equ	0xFF3
  3477                           intcon	equ	0xFF2
  3478                           postinc0	equ	0xFEE
  3479                           wreg	equ	0xFE8
  3480                           postdec1	equ	0xFE5
  3481                           fsr1l	equ	0xFE1
  3482                           indf2	equ	0xFDF
  3483                           fsr2h	equ	0xFDA
  3484                           fsr2l	equ	0xFD9
  3485                           status	equ	0xFD8
  3486                           
  3487 ;; *************** function _enable_PLL *****************
  3488 ;; Defined at:
  3489 ;;		line 99 in file "zigbee.c"
  3490 ;; Parameters:    Size  Location     Type
  3491 ;;		None
  3492 ;; Auto vars:     Size  Location     Type
  3493 ;;		None
  3494 ;; Return value:  Size  Location     Type
  3495 ;;                  1    wreg      void 
  3496 ;; Registers used:
  3497 ;;		wreg, status,2, status,0, cstack
  3498 ;; Tracked objects:
  3499 ;;		On entry : 0/0
  3500 ;;		On exit  : 0/0
  3501 ;;		Unchanged: 0/0
  3502 ;; Data sizes:     COMRAM   BANK0   BANK1   BANK2   BANK3   BANK4   BANK5   BANK6   BANK7   BANK8   BANK9  BANK10  BANK1
      +1  BANK12  BANK13  BANK14  BANK15
  3503 ;;      Params:         0       0       0       0       0       0       0       0       0       0       0       0       
      +0       0       0       0       0
  3504 ;;      Locals:         0       0       0       0       0       0       0       0       0       0       0       0       
      +0       0       0       0       0
  3505 ;;      Temps:          0       0       0       0       0       0       0       0       0       0       0       0       
      +0       0       0       0       0
  3506 ;;      Totals:         0       0       0       0       0       0       0       0       0       0       0       0       
      +0       0       0       0       0
  3507 ;;Total ram usage:        0 bytes
  3508 ;; Hardware stack levels used:    1
  3509 ;; Hardware stack levels required when called:   11
  3510 ;; This function calls:
  3511 ;;		_write_ZIGBEE_long
  3512 ;; This function is called by:
  3513 ;;		_init_ZIGBEE_basic
  3514 ;; This function uses a non-reentrant model
  3515 ;;
  3516                           
  3517                           	psect	text18
  3518  00226E                     __ptext18:
  3519                           	opt stack 0
  3520  00226E                     _enable_PLL:
  3521                           	opt stack 17
  3522                           
  3523                           ;zigbee.c: 100: write_ZIGBEE_long(0x202, 0x80);
  3524                           
  3525                           ;incstack = 0
  3526  00226E  0E02               	movlw	2
  3527  002270  0101               	movlb	1	; () banked
  3528  002272  6F2C               	movwf	(write_ZIGBEE_long@address+1)& (0+255),b
  3529  002274  0E02               	movlw	2
  3530  002276  6F2B               	movwf	write_ZIGBEE_long@address& (0+255),b
  3531  002278  0E80               	movlw	128
  3532  00227A  6F2D               	movwf	write_ZIGBEE_long@data_r& (0+255),b
  3533  00227C  ECFF  F00D         	call	_write_ZIGBEE_long	;wreg free
  3534  002280  0012               	return		;funcret
  3535  002282                     __end_of_enable_PLL:
  3536                           	opt stack 0
  3537                           tblptru	equ	0xFF8
  3538                           tblptrh	equ	0xFF7
  3539                           tblptrl	equ	0xFF6
  3540                           tablat	equ	0xFF5
  3541                           prodh	equ	0xFF4
  3542                           prodl	equ	0xFF3
  3543                           intcon	equ	0xFF2
  3544                           postinc0	equ	0xFEE
  3545                           wreg	equ	0xFE8
  3546                           postdec1	equ	0xFE5
  3547                           fsr1l	equ	0xFE1
  3548                           indf2	equ	0xFDF
  3549                           fsr2h	equ	0xFDA
  3550                           fsr2l	equ	0xFD9
  3551                           status	equ	0xFD8
  3552                           
  3553 ;; *************** function _write_ZIGBEE_long *****************
  3554 ;; Defined at:
  3555 ;;		line 414 in file "zigbee.c"
  3556 ;; Parameters:    Size  Location     Type
  3557 ;;  address         2    2[BANK1 ] unsigned int 
  3558 ;;  data_r          1    4[BANK1 ] unsigned char 
  3559 ;; Auto vars:     Size  Location     Type
  3560 ;;  address_low     1    8[BANK1 ] unsigned char 
  3561 ;;  address_high    1    7[BANK1 ] unsigned char 
  3562 ;; Return value:  Size  Location     Type
  3563 ;;                  1    wreg      void 
  3564 ;; Registers used:
  3565 ;;		wreg, status,2, status,0, cstack
  3566 ;; Tracked objects:
  3567 ;;		On entry : 0/0
  3568 ;;		On exit  : 0/0
  3569 ;;		Unchanged: 0/0
  3570 ;; Data sizes:     COMRAM   BANK0   BANK1   BANK2   BANK3   BANK4   BANK5   BANK6   BANK7   BANK8   BANK9  BANK10  BANK1
      +1  BANK12  BANK13  BANK14  BANK15
  3571 ;;      Params:         0       0       3       0       0       0       0       0       0       0       0       0       
      +0       0       0       0       0
  3572 ;;      Locals:         0       0       2       0       0       0       0       0       0       0       0       0       
      +0       0       0       0       0
  3573 ;;      Temps:          0       0       2       0       0       0       0       0       0       0       0       0       
      +0       0       0       0       0
  3574 ;;      Totals:         0       0       7       0       0       0       0       0       0       0       0       0       
      +0       0       0       0       0
  3575 ;;Total ram usage:        7 bytes
  3576 ;; Hardware stack levels used:    1
  3577 ;; Hardware stack levels required when called:   10
  3578 ;; This function calls:
  3579 ;;		_SPI_Write
  3580 ;; This function is called by:
  3581 ;;		_init_ZIGBEE_basic
  3582 ;;		_enable_PLL
  3583 ;;		_set_channel
  3584 ;;		_set_TX_power
  3585 ;; This function uses a non-reentrant model
  3586 ;;
  3587                           
  3588                           	psect	text19
  3589  001BFE                     __ptext19:
  3590                           	opt stack 0
  3591  001BFE                     _write_ZIGBEE_long:
  3592                           	opt stack 19
  3593                           
  3594                           ;zigbee.c: 415: unsigned char address_high = 0, address_low = 0;
  3595                           
  3596                           ;incstack = 0
  3597  001BFE  0E00               	movlw	0
  3598  001C00  0101               	movlb	1	; () banked
  3599  001C02  6F30               	movwf	write_ZIGBEE_long@address_high& (0+255),b
  3600  001C04  0E00               	movlw	0
  3601  001C06  6F31               	movwf	write_ZIGBEE_long@address_low& (0+255),b
  3602                           
  3603                           ; BSR set to: 1
  3604                           ;zigbee.c: 417: PORTCbits.RC0=0;
  3605  001C08  9082               	bcf	3970,0,c	;volatile
  3606                           
  3607                           ; BSR set to: 1
  3608                           ;zigbee.c: 418: address_high = (((unsigned char)(address >> 3)) & 0b01111111) | 0x80;
  3609  001C0A  C12B  F12E         	movff	write_ZIGBEE_long@address,??_write_ZIGBEE_long
  3610  001C0E  C12C  F12F         	movff	write_ZIGBEE_long@address+1,??_write_ZIGBEE_long+1
  3611  001C12  90D8               	bcf	status,0,c
  3612  001C14  332F               	rrcf	(??_write_ZIGBEE_long+1)& (0+255),f,b
  3613  001C16  332E               	rrcf	??_write_ZIGBEE_long& (0+255),f,b
  3614  001C18  90D8               	bcf	status,0,c
  3615  001C1A  332F               	rrcf	(??_write_ZIGBEE_long+1)& (0+255),f,b
  3616  001C1C  332E               	rrcf	??_write_ZIGBEE_long& (0+255),f,b
  3617  001C1E  90D8               	bcf	status,0,c
  3618  001C20  332F               	rrcf	(??_write_ZIGBEE_long+1)& (0+255),f,b
  3619  001C22  332E               	rrcf	??_write_ZIGBEE_long& (0+255),f,b
  3620  001C24  512E               	movf	??_write_ZIGBEE_long& (0+255),w,b
  3621  001C26  0B7F               	andlw	127
  3622  001C28  0980               	iorlw	128
  3623  001C2A  6F30               	movwf	write_ZIGBEE_long@address_high& (0+255),b
  3624                           
  3625                           ; BSR set to: 1
  3626                           ;zigbee.c: 419: address_low = (((unsigned char)(address << 5)) & 0b11100000) | 0x10;
  3627  001C2C  392B               	swapf	write_ZIGBEE_long@address& (0+255),w,b
  3628  001C2E  46E8               	rlncf	wreg,f,c
  3629  001C30  0BE0               	andlw	224
  3630  001C32  0BE0               	andlw	224
  3631  001C34  0910               	iorlw	16
  3632  001C36  6F31               	movwf	write_ZIGBEE_long@address_low& (0+255),b
  3633                           
  3634                           ; BSR set to: 1
  3635                           ;zigbee.c: 420: SPI_Write(address_high);
  3636  001C38  5130               	movf	write_ZIGBEE_long@address_high& (0+255),w,b
  3637  001C3A  EC54  F011         	call	_SPI_Write
  3638                           
  3639                           ;zigbee.c: 421: SPI_Write(address_low);
  3640  001C3E  0101               	movlb	1	; () banked
  3641  001C40  5131               	movf	write_ZIGBEE_long@address_low& (0+255),w,b
  3642  001C42  EC54  F011         	call	_SPI_Write
  3643                           
  3644                           ;zigbee.c: 422: SPI_Write(data_r);
  3645  001C46  0101               	movlb	1	; () banked
  3646  001C48  512D               	movf	write_ZIGBEE_long@data_r& (0+255),w,b
  3647  001C4A  EC54  F011         	call	_SPI_Write
  3648                           
  3649                           ;zigbee.c: 423: PORTCbits.RC0=1;
  3650  001C4E  8082               	bsf	3970,0,c	;volatile
  3651  001C50  0012               	return		;funcret
  3652  001C52                     __end_of_write_ZIGBEE_long:
  3653                           	opt stack 0
  3654                           tblptru	equ	0xFF8
  3655                           tblptrh	equ	0xFF7
  3656                           tblptrl	equ	0xFF6
  3657                           tablat	equ	0xFF5
  3658                           prodh	equ	0xFF4
  3659                           prodl	equ	0xFF3
  3660                           intcon	equ	0xFF2
  3661                           postinc0	equ	0xFEE
  3662                           wreg	equ	0xFE8
  3663                           postdec1	equ	0xFE5
  3664                           fsr1l	equ	0xFE1
  3665                           indf2	equ	0xFDF
  3666                           fsr2h	equ	0xFDA
  3667                           fsr2l	equ	0xFD9
  3668                           status	equ	0xFD8
  3669                           
  3670 ;; *************** function _enable_interrupt *****************
  3671 ;; Defined at:
  3672 ;;		line 167 in file "zigbee.c"
  3673 ;; Parameters:    Size  Location     Type
  3674 ;;		None
  3675 ;; Auto vars:     Size  Location     Type
  3676 ;;		None
  3677 ;; Return value:  Size  Location     Type
  3678 ;;                  1    wreg      void 
  3679 ;; Registers used:
  3680 ;;		wreg, status,2, status,0, cstack
  3681 ;; Tracked objects:
  3682 ;;		On entry : 0/0
  3683 ;;		On exit  : 0/0
  3684 ;;		Unchanged: 0/0
  3685 ;; Data sizes:     COMRAM   BANK0   BANK1   BANK2   BANK3   BANK4   BANK5   BANK6   BANK7   BANK8   BANK9  BANK10  BANK1
      +1  BANK12  BANK13  BANK14  BANK15
  3686 ;;      Params:         0       0       0       0       0       0       0       0       0       0       0       0       
      +0       0       0       0       0
  3687 ;;      Locals:         0       0       0       0       0       0       0       0       0       0       0       0       
      +0       0       0       0       0
  3688 ;;      Temps:          0       0       0       0       0       0       0       0       0       0       0       0       
      +0       0       0       0       0
  3689 ;;      Totals:         0       0       0       0       0       0       0       0       0       0       0       0       
      +0       0       0       0       0
  3690 ;;Total ram usage:        0 bytes
  3691 ;; Hardware stack levels used:    1
  3692 ;; Hardware stack levels required when called:   11
  3693 ;; This function calls:
  3694 ;;		_write_ZIGBEE_short
  3695 ;; This function is called by:
  3696 ;;		_init_ZIGBEE_nonbeacon
  3697 ;; This function uses a non-reentrant model
  3698 ;;
  3699                           
  3700                           	psect	text20
  3701  0022FE                     __ptext20:
  3702                           	opt stack 0
  3703  0022FE                     _enable_interrupt:
  3704                           	opt stack 18
  3705                           
  3706                           ;zigbee.c: 168: write_ZIGBEE_short(0x32, 0xF7);
  3707                           
  3708                           ;incstack = 0
  3709  0022FE  0EF7               	movlw	247
  3710  002300  0101               	movlb	1	; () banked
  3711  002302  6F2B               	movwf	write_ZIGBEE_short@data_r& (0+255),b
  3712  002304  0E32               	movlw	50
  3713  002306  EC2B  F010         	call	_write_ZIGBEE_short
  3714  00230A  0012               	return		;funcret
  3715  00230C                     __end_of_enable_interrupt:
  3716                           	opt stack 0
  3717                           tblptru	equ	0xFF8
  3718                           tblptrh	equ	0xFF7
  3719                           tblptrl	equ	0xFF6
  3720                           tablat	equ	0xFF5
  3721                           prodh	equ	0xFF4
  3722                           prodl	equ	0xFF3
  3723                           intcon	equ	0xFF2
  3724                           postinc0	equ	0xFEE
  3725                           wreg	equ	0xFE8
  3726                           postdec1	equ	0xFE5
  3727                           fsr1l	equ	0xFE1
  3728                           indf2	equ	0xFDF
  3729                           fsr2h	equ	0xFDA
  3730                           fsr2l	equ	0xFD9
  3731                           status	equ	0xFD8
  3732                           
  3733 ;; *************** function _write_ZIGBEE_short *****************
  3734 ;; Defined at:
  3735 ;;		line 396 in file "zigbee.c"
  3736 ;; Parameters:    Size  Location     Type
  3737 ;;  address         1    wreg     unsigned char 
  3738 ;;  data_r          1    2[BANK1 ] unsigned char 
  3739 ;; Auto vars:     Size  Location     Type
  3740 ;;  address         1    3[BANK1 ] unsigned char 
  3741 ;; Return value:  Size  Location     Type
  3742 ;;                  1    wreg      void 
  3743 ;; Registers used:
  3744 ;;		wreg, status,2, status,0, cstack
  3745 ;; Tracked objects:
  3746 ;;		On entry : 0/0
  3747 ;;		On exit  : 0/0
  3748 ;;		Unchanged: 0/0
  3749 ;; Data sizes:     COMRAM   BANK0   BANK1   BANK2   BANK3   BANK4   BANK5   BANK6   BANK7   BANK8   BANK9  BANK10  BANK1
      +1  BANK12  BANK13  BANK14  BANK15
  3750 ;;      Params:         0       0       1       0       0       0       0       0       0       0       0       0       
      +0       0       0       0       0
  3751 ;;      Locals:         0       0       1       0       0       0       0       0       0       0       0       0       
      +0       0       0       0       0
  3752 ;;      Temps:          0       0       0       0       0       0       0       0       0       0       0       0       
      +0       0       0       0       0
  3753 ;;      Totals:         0       0       2       0       0       0       0       0       0       0       0       0       
      +0       0       0       0       0
  3754 ;;Total ram usage:        2 bytes
  3755 ;; Hardware stack levels used:    1
  3756 ;; Hardware stack levels required when called:   10
  3757 ;; This function calls:
  3758 ;;		_SPI_Write
  3759 ;; This function is called by:
  3760 ;;		_RF_reset
  3761 ;;		_set_WAKE_from_pin
  3762 ;;		_set_long_address
  3763 ;;		_set_short_address
  3764 ;;		_set_PAN_ID
  3765 ;;		_init_ZIGBEE_basic
  3766 ;;		_set_CCA_mode
  3767 ;;		_set_RSSI_mode
  3768 ;;		_enable_interrupt
  3769 ;;		_nonbeacon_PAN_coordinator_device
  3770 ;;		_set_frame_format_filter
  3771 ;;		_set_reception_mode
  3772 ;; This function uses a non-reentrant model
  3773 ;;
  3774                           
  3775                           	psect	text21
  3776  002056                     __ptext21:
  3777                           	opt stack 0
  3778  002056                     _write_ZIGBEE_short:
  3779                           	opt stack 19
  3780                           
  3781                           ;incstack = 0
  3782                           ;write_ZIGBEE_short@address stored from wreg
  3783  002056  0101               	movlb	1	; () banked
  3784  002058  6F2C               	movwf	write_ZIGBEE_short@address& (0+255),b
  3785                           
  3786                           ;zigbee.c: 397: PORTCbits.RC0=0;
  3787  00205A  9082               	bcf	3970,0,c	;volatile
  3788                           
  3789                           ;zigbee.c: 398: address = ((address << 1) & 0b01111111) | 0x01;
  3790  00205C  0101               	movlb	1	; () banked
  3791  00205E  512C               	movf	write_ZIGBEE_short@address& (0+255),w,b
  3792  002060  252C               	addwf	write_ZIGBEE_short@address& (0+255),w,b
  3793  002062  0B7F               	andlw	127
  3794  002064  0901               	iorlw	1
  3795  002066  6F2C               	movwf	write_ZIGBEE_short@address& (0+255),b
  3796                           
  3797                           ; BSR set to: 1
  3798                           ;zigbee.c: 399: SPI_Write(address);
  3799  002068  512C               	movf	write_ZIGBEE_short@address& (0+255),w,b
  3800  00206A  EC54  F011         	call	_SPI_Write
  3801                           
  3802                           ;zigbee.c: 400: SPI_Write(data_r);
  3803  00206E  0101               	movlb	1	; () banked
  3804  002070  512B               	movf	write_ZIGBEE_short@data_r& (0+255),w,b
  3805  002072  EC54  F011         	call	_SPI_Write
  3806                           
  3807                           ;zigbee.c: 401: PORTCbits.RC0=1;
  3808  002076  8082               	bsf	3970,0,c	;volatile
  3809  002078  0012               	return		;funcret
  3810  00207A                     __end_of_write_ZIGBEE_short:
  3811                           	opt stack 0
  3812                           tblptru	equ	0xFF8
  3813                           tblptrh	equ	0xFF7
  3814                           tblptrl	equ	0xFF6
  3815                           tablat	equ	0xFF5
  3816                           prodh	equ	0xFF4
  3817                           prodl	equ	0xFF3
  3818                           intcon	equ	0xFF2
  3819                           postinc0	equ	0xFEE
  3820                           wreg	equ	0xFE8
  3821                           postdec1	equ	0xFE5
  3822                           fsr1l	equ	0xFE1
  3823                           indf2	equ	0xFDF
  3824                           fsr2h	equ	0xFDA
  3825                           fsr2l	equ	0xFD9
  3826                           status	equ	0xFD8
  3827                           
  3828 ;; *************** function _SPI_Write *****************
  3829 ;; Defined at:
  3830 ;;		line 457 in file "zigbee.c"
  3831 ;; Parameters:    Size  Location     Type
  3832 ;;  command         1    wreg     unsigned char 
  3833 ;; Auto vars:     Size  Location     Type
  3834 ;;  command         1    1[BANK1 ] unsigned char 
  3835 ;;  response        1    0[BANK1 ] unsigned char 
  3836 ;; Return value:  Size  Location     Type
  3837 ;;                  1    wreg      void 
  3838 ;; Registers used:
  3839 ;;		wreg
  3840 ;; Tracked objects:
  3841 ;;		On entry : 0/0
  3842 ;;		On exit  : 0/0
  3843 ;;		Unchanged: 0/0
  3844 ;; Data sizes:     COMRAM   BANK0   BANK1   BANK2   BANK3   BANK4   BANK5   BANK6   BANK7   BANK8   BANK9  BANK10  BANK1
      +1  BANK12  BANK13  BANK14  BANK15
  3845 ;;      Params:         0       0       0       0       0       0       0       0       0       0       0       0       
      +0       0       0       0       0
  3846 ;;      Locals:         0       0       2       0       0       0       0       0       0       0       0       0       
      +0       0       0       0       0
  3847 ;;      Temps:          0       0       0       0       0       0       0       0       0       0       0       0       
      +0       0       0       0       0
  3848 ;;      Totals:         0       0       2       0       0       0       0       0       0       0       0       0       
      +0       0       0       0       0
  3849 ;;Total ram usage:        2 bytes
  3850 ;; Hardware stack levels used:    1
  3851 ;; Hardware stack levels required when called:    9
  3852 ;; This function calls:
  3853 ;;		Nothing
  3854 ;; This function is called by:
  3855 ;;		_write_ZIGBEE_short
  3856 ;;		_write_ZIGBEE_long
  3857 ;; This function uses a non-reentrant model
  3858 ;;
  3859                           
  3860                           	psect	text22
  3861  0022A8                     __ptext22:
  3862                           	opt stack 0
  3863  0022A8                     _SPI_Write:
  3864                           	opt stack 19
  3865                           
  3866                           ;incstack = 0
  3867                           ;SPI_Write@command stored from wreg
  3868  0022A8  0101               	movlb	1	; () banked
  3869  0022AA  6F2A               	movwf	SPI_Write@command& (0+255),b
  3870                           
  3871                           ;zigbee.c: 458: unsigned char response;
  3872                           ;zigbee.c: 459: SSP1BUF = command;
  3873  0022AC  C12A  FFC9         	movff	SPI_Write@command,4041	;volatile
  3874  0022B0  A0C7               	btfss	4039,0,c	;volatile
  3875  0022B2  D7FE               	goto	l527
  3876                           
  3877                           ;zigbee.c: 461: response = SSP1BUF;
  3878  0022B4  CFC9 F129          	movff	4041,SPI_Write@response	;volatile
  3879  0022B8  0012               	return		;funcret
  3880  0022BA                     __end_of_SPI_Write:
  3881                           	opt stack 0
  3882                           tblptru	equ	0xFF8
  3883                           tblptrh	equ	0xFF7
  3884                           tblptrl	equ	0xFF6
  3885                           tablat	equ	0xFF5
  3886                           prodh	equ	0xFF4
  3887                           prodl	equ	0xFF3
  3888                           intcon	equ	0xFF2
  3889                           postinc0	equ	0xFEE
  3890                           wreg	equ	0xFE8
  3891                           postdec1	equ	0xFE5
  3892                           fsr1l	equ	0xFE1
  3893                           indf2	equ	0xFDF
  3894                           fsr2h	equ	0xFDA
  3895                           fsr2l	equ	0xFD9
  3896                           status	equ	0xFD8
  3897                           
  3898 ;; *************** function _SYSTEM_Initialize *****************
  3899 ;; Defined at:
  3900 ;;		line 128 in file "mcc_generated_files/mcc.c"
  3901 ;; Parameters:    Size  Location     Type
  3902 ;;		None
  3903 ;; Auto vars:     Size  Location     Type
  3904 ;;		None
  3905 ;; Return value:  Size  Location     Type
  3906 ;;                  1    wreg      void 
  3907 ;; Registers used:
  3908 ;;		wreg, status,2, status,0, cstack
  3909 ;; Tracked objects:
  3910 ;;		On entry : 0/0
  3911 ;;		On exit  : 0/0
  3912 ;;		Unchanged: 0/0
  3913 ;; Data sizes:     COMRAM   BANK0   BANK1   BANK2   BANK3   BANK4   BANK5   BANK6   BANK7   BANK8   BANK9  BANK10  BANK1
      +1  BANK12  BANK13  BANK14  BANK15
  3914 ;;      Params:         0       0       0       0       0       0       0       0       0       0       0       0       
      +0       0       0       0       0
  3915 ;;      Locals:         0       0       0       0       0       0       0       0       0       0       0       0       
      +0       0       0       0       0
  3916 ;;      Temps:          0       0       0       0       0       0       0       0       0       0       0       0       
      +0       0       0       0       0
  3917 ;;      Totals:         0       0       0       0       0       0       0       0       0       0       0       0       
      +0       0       0       0       0
  3918 ;;Total ram usage:        0 bytes
  3919 ;; Hardware stack levels used:    1
  3920 ;; Hardware stack levels required when called:   11
  3921 ;; This function calls:
  3922 ;;		_ADC_Initialize
  3923 ;;		_EXT_INT_Initialize
  3924 ;;		_INTERRUPT_Initialize
  3925 ;;		_OSCILLATOR_Initialize
  3926 ;;		_PIN_MANAGER_Initialize
  3927 ;;		_TMR0_Initialize
  3928 ;; This function is called by:
  3929 ;;		_main
  3930 ;; This function uses a non-reentrant model
  3931 ;;
  3932                           
  3933                           	psect	text23
  3934  0021F8                     __ptext23:
  3935                           	opt stack 0
  3936  0021F8                     _SYSTEM_Initialize:
  3937                           	opt stack 19
  3938                           
  3939                           ;mcc.c: 130: INTERRUPT_Initialize();
  3940                           
  3941                           ;incstack = 0
  3942  0021F8  EC9E  F011         	call	_INTERRUPT_Initialize	;wreg free
  3943                           
  3944                           ;mcc.c: 131: PIN_MANAGER_Initialize();
  3945  0021FC  EC7C  F00E         	call	_PIN_MANAGER_Initialize	;wreg free
  3946                           
  3947                           ;mcc.c: 132: OSCILLATOR_Initialize();
  3948  002200  EC41  F011         	call	_OSCILLATOR_Initialize	;wreg free
  3949                           
  3950                           ;mcc.c: 133: EXT_INT_Initialize();
  3951  002204  EC09  F011         	call	_EXT_INT_Initialize	;wreg free
  3952                           
  3953                           ;mcc.c: 134: TMR0_Initialize();
  3954  002208  ECDC  F00F         	call	_TMR0_Initialize	;wreg free
  3955                           
  3956                           ;mcc.c: 135: ADC_Initialize();
  3957  00220C  EC16  F011         	call	_ADC_Initialize	;wreg free
  3958  002210  0012               	return		;funcret
  3959  002212                     __end_of_SYSTEM_Initialize:
  3960                           	opt stack 0
  3961                           tblptru	equ	0xFF8
  3962                           tblptrh	equ	0xFF7
  3963                           tblptrl	equ	0xFF6
  3964                           tablat	equ	0xFF5
  3965                           prodh	equ	0xFF4
  3966                           prodl	equ	0xFF3
  3967                           intcon	equ	0xFF2
  3968                           postinc0	equ	0xFEE
  3969                           wreg	equ	0xFE8
  3970                           postdec1	equ	0xFE5
  3971                           fsr1l	equ	0xFE1
  3972                           indf2	equ	0xFDF
  3973                           fsr2h	equ	0xFDA
  3974                           fsr2l	equ	0xFD9
  3975                           status	equ	0xFD8
  3976                           
  3977 ;; *************** function _TMR0_Initialize *****************
  3978 ;; Defined at:
  3979 ;;		line 66 in file "mcc_generated_files/tmr0.c"
  3980 ;; Parameters:    Size  Location     Type
  3981 ;;		None
  3982 ;; Auto vars:     Size  Location     Type
  3983 ;;		None
  3984 ;; Return value:  Size  Location     Type
  3985 ;;                  1    wreg      void 
  3986 ;; Registers used:
  3987 ;;		wreg, status,2, status,0, cstack
  3988 ;; Tracked objects:
  3989 ;;		On entry : 0/0
  3990 ;;		On exit  : 0/0
  3991 ;;		Unchanged: 0/0
  3992 ;; Data sizes:     COMRAM   BANK0   BANK1   BANK2   BANK3   BANK4   BANK5   BANK6   BANK7   BANK8   BANK9  BANK10  BANK1
      +1  BANK12  BANK13  BANK14  BANK15
  3993 ;;      Params:         0       0       0       0       0       0       0       0       0       0       0       0       
      +0       0       0       0       0
  3994 ;;      Locals:         0       0       0       0       0       0       0       0       0       0       0       0       
      +0       0       0       0       0
  3995 ;;      Temps:          0       0       0       0       0       0       0       0       0       0       0       0       
      +0       0       0       0       0
  3996 ;;      Totals:         0       0       0       0       0       0       0       0       0       0       0       0       
      +0       0       0       0       0
  3997 ;;Total ram usage:        0 bytes
  3998 ;; Hardware stack levels used:    1
  3999 ;; Hardware stack levels required when called:   10
  4000 ;; This function calls:
  4001 ;;		_TMR0_SetInterruptHandler
  4002 ;; This function is called by:
  4003 ;;		_SYSTEM_Initialize
  4004 ;; This function uses a non-reentrant model
  4005 ;;
  4006                           
  4007                           	psect	text24
  4008  001FB8                     __ptext24:
  4009                           	opt stack 0
  4010  001FB8                     _TMR0_Initialize:
  4011                           	opt stack 19
  4012                           
  4013                           ;tmr0.c: 71: TMR0H = 0x00;
  4014                           
  4015                           ;incstack = 0
  4016  001FB8  0E00               	movlw	0
  4017  001FBA  6ED7               	movwf	4055,c	;volatile
  4018                           
  4019                           ;tmr0.c: 74: TMR0L = 0xF8;
  4020  001FBC  0EF8               	movlw	248
  4021  001FBE  6ED6               	movwf	4054,c	;volatile
  4022                           
  4023                           ;tmr0.c: 78: timer0ReloadVal = 248;
  4024  001FC0  0EF8               	movlw	248
  4025  001FC2  0100               	movlb	0	; () banked
  4026  001FC4  6FB2               	movwf	_timer0ReloadVal& (0+255),b	;volatile
  4027                           
  4028                           ; BSR set to: 0
  4029                           ;tmr0.c: 81: INTCONbits.TMR0IF = 0;
  4030  001FC6  94F2               	bcf	intcon,2,c	;volatile
  4031                           
  4032                           ; BSR set to: 0
  4033                           ;tmr0.c: 84: INTCONbits.TMR0IE = 1;
  4034  001FC8  8AF2               	bsf	intcon,5,c	;volatile
  4035                           
  4036                           ; BSR set to: 0
  4037                           ;tmr0.c: 87: TMR0_SetInterruptHandler(TMR0_DefaultInterruptHandler);
  4038  001FCA  0E42               	movlw	low _TMR0_DefaultInterruptHandler
  4039  001FCC  0101               	movlb	1	; () banked
  4040  001FCE  6F29               	movwf	TMR0_SetInterruptHandler@InterruptHandler& (0+255),b
  4041  001FD0  0E23               	movlw	high _TMR0_DefaultInterruptHandler
  4042  001FD2  6F2A               	movwf	(TMR0_SetInterruptHandler@InterruptHandler+1)& (0+255),b
  4043  001FD4  0E00               	movlw	low (_TMR0_DefaultInterruptHandler shr (0+16))
  4044  001FD6  6F2B               	movwf	(TMR0_SetInterruptHandler@InterruptHandler+2)& (0+255),b
  4045  001FD8  EC86  F011         	call	_TMR0_SetInterruptHandler	;wreg free
  4046                           
  4047                           ;tmr0.c: 90: T0CON = 0xD7;
  4048  001FDC  0ED7               	movlw	215
  4049  001FDE  6ED5               	movwf	4053,c	;volatile
  4050  001FE0  0012               	return		;funcret
  4051  001FE2                     __end_of_TMR0_Initialize:
  4052                           	opt stack 0
  4053                           tblptru	equ	0xFF8
  4054                           tblptrh	equ	0xFF7
  4055                           tblptrl	equ	0xFF6
  4056                           tablat	equ	0xFF5
  4057                           prodh	equ	0xFF4
  4058                           prodl	equ	0xFF3
  4059                           intcon	equ	0xFF2
  4060                           postinc0	equ	0xFEE
  4061                           wreg	equ	0xFE8
  4062                           postdec1	equ	0xFE5
  4063                           fsr1l	equ	0xFE1
  4064                           indf2	equ	0xFDF
  4065                           fsr2h	equ	0xFDA
  4066                           fsr2l	equ	0xFD9
  4067                           status	equ	0xFD8
  4068                           
  4069 ;; *************** function _TMR0_SetInterruptHandler *****************
  4070 ;; Defined at:
  4071 ;;		line 154 in file "mcc_generated_files/tmr0.c"
  4072 ;; Parameters:    Size  Location     Type
  4073 ;;  InterruptHan    3    0[BANK1 ] PTR FTN()void 
  4074 ;;		 -> TMR0_DefaultInterruptHandler(1), 
  4075 ;; Auto vars:     Size  Location     Type
  4076 ;;		None
  4077 ;; Return value:  Size  Location     Type
  4078 ;;                  1    wreg      void 
  4079 ;; Registers used:
  4080 ;;		wreg, status,2, status,0
  4081 ;; Tracked objects:
  4082 ;;		On entry : 0/0
  4083 ;;		On exit  : 0/0
  4084 ;;		Unchanged: 0/0
  4085 ;; Data sizes:     COMRAM   BANK0   BANK1   BANK2   BANK3   BANK4   BANK5   BANK6   BANK7   BANK8   BANK9  BANK10  BANK1
      +1  BANK12  BANK13  BANK14  BANK15
  4086 ;;      Params:         0       0       3       0       0       0       0       0       0       0       0       0       
      +0       0       0       0       0
  4087 ;;      Locals:         0       0       0       0       0       0       0       0       0       0       0       0       
      +0       0       0       0       0
  4088 ;;      Temps:          0       0       0       0       0       0       0       0       0       0       0       0       
      +0       0       0       0       0
  4089 ;;      Totals:         0       0       3       0       0       0       0       0       0       0       0       0       
      +0       0       0       0       0
  4090 ;;Total ram usage:        3 bytes
  4091 ;; Hardware stack levels used:    1
  4092 ;; Hardware stack levels required when called:    9
  4093 ;; This function calls:
  4094 ;;		Nothing
  4095 ;; This function is called by:
  4096 ;;		_TMR0_Initialize
  4097 ;; This function uses a non-reentrant model
  4098 ;;
  4099                           
  4100                           	psect	text25
  4101  00230C                     __ptext25:
  4102                           	opt stack 0
  4103  00230C                     _TMR0_SetInterruptHandler:
  4104                           	opt stack 19
  4105                           
  4106                           ;tmr0.c: 155: TMR0_InterruptHandler = InterruptHandler;
  4107                           
  4108                           ;incstack = 0
  4109  00230C  C129  F08C         	movff	TMR0_SetInterruptHandler@InterruptHandler,_TMR0_InterruptHandler
  4110  002310  C12A  F08D         	movff	TMR0_SetInterruptHandler@InterruptHandler+1,_TMR0_InterruptHandler+1
  4111  002314  C12B  F08E         	movff	TMR0_SetInterruptHandler@InterruptHandler+2,_TMR0_InterruptHandler+2
  4112  002318  0012               	return		;funcret
  4113  00231A                     __end_of_TMR0_SetInterruptHandler:
  4114                           	opt stack 0
  4115                           tblptru	equ	0xFF8
  4116                           tblptrh	equ	0xFF7
  4117                           tblptrl	equ	0xFF6
  4118                           tablat	equ	0xFF5
  4119                           prodh	equ	0xFF4
  4120                           prodl	equ	0xFF3
  4121                           intcon	equ	0xFF2
  4122                           postinc0	equ	0xFEE
  4123                           wreg	equ	0xFE8
  4124                           postdec1	equ	0xFE5
  4125                           fsr1l	equ	0xFE1
  4126                           indf2	equ	0xFDF
  4127                           fsr2h	equ	0xFDA
  4128                           fsr2l	equ	0xFD9
  4129                           status	equ	0xFD8
  4130                           
  4131 ;; *************** function _PIN_MANAGER_Initialize *****************
  4132 ;; Defined at:
  4133 ;;		line 52 in file "mcc_generated_files/pin_manager.c"
  4134 ;; Parameters:    Size  Location     Type
  4135 ;;		None
  4136 ;; Auto vars:     Size  Location     Type
  4137 ;;		None
  4138 ;; Return value:  Size  Location     Type
  4139 ;;                  1    wreg      void 
  4140 ;; Registers used:
  4141 ;;		wreg, status,2
  4142 ;; Tracked objects:
  4143 ;;		On entry : 0/0
  4144 ;;		On exit  : 0/0
  4145 ;;		Unchanged: 0/0
  4146 ;; Data sizes:     COMRAM   BANK0   BANK1   BANK2   BANK3   BANK4   BANK5   BANK6   BANK7   BANK8   BANK9  BANK10  BANK1
      +1  BANK12  BANK13  BANK14  BANK15
  4147 ;;      Params:         0       0       0       0       0       0       0       0       0       0       0       0       
      +0       0       0       0       0
  4148 ;;      Locals:         0       0       0       0       0       0       0       0       0       0       0       0       
      +0       0       0       0       0
  4149 ;;      Temps:          0       0       0       0       0       0       0       0       0       0       0       0       
      +0       0       0       0       0
  4150 ;;      Totals:         0       0       0       0       0       0       0       0       0       0       0       0       
      +0       0       0       0       0
  4151 ;;Total ram usage:        0 bytes
  4152 ;; Hardware stack levels used:    1
  4153 ;; Hardware stack levels required when called:    9
  4154 ;; This function calls:
  4155 ;;		Nothing
  4156 ;; This function is called by:
  4157 ;;		_SYSTEM_Initialize
  4158 ;; This function uses a non-reentrant model
  4159 ;;
  4160                           
  4161                           	psect	text26
  4162  001CF8                     __ptext26:
  4163                           	opt stack 0
  4164  001CF8                     _PIN_MANAGER_Initialize:
  4165                           	opt stack 20
  4166                           
  4167                           ;pin_manager.c: 57: LATE = 0x04;
  4168                           
  4169                           ;incstack = 0
  4170  001CF8  0E04               	movlw	4
  4171  001CFA  6E8D               	movwf	3981,c	;volatile
  4172                           
  4173                           ;pin_manager.c: 58: LATD = 0x00;
  4174  001CFC  0E00               	movlw	0
  4175  001CFE  6E8C               	movwf	3980,c	;volatile
  4176                           
  4177                           ;pin_manager.c: 59: LATA = 0x0F;
  4178  001D00  0E0F               	movlw	15
  4179  001D02  6E89               	movwf	3977,c	;volatile
  4180                           
  4181                           ;pin_manager.c: 60: LATF = 0x00;
  4182  001D04  0E00               	movlw	0
  4183  001D06  6E8E               	movwf	3982,c	;volatile
  4184                           
  4185                           ;pin_manager.c: 61: LATB = 0x01;
  4186  001D08  0E01               	movlw	1
  4187  001D0A  6E8A               	movwf	3978,c	;volatile
  4188                           
  4189                           ;pin_manager.c: 62: LATG = 0x00;
  4190  001D0C  0E00               	movlw	0
  4191  001D0E  6E8F               	movwf	3983,c	;volatile
  4192                           
  4193                           ;pin_manager.c: 63: LATC = 0x03;
  4194  001D10  0E03               	movlw	3
  4195  001D12  6E8B               	movwf	3979,c	;volatile
  4196                           
  4197                           ;pin_manager.c: 68: TRISE = 0xFF;
  4198  001D14  6896               	setf	3990,c	;volatile
  4199                           
  4200                           ;pin_manager.c: 69: TRISF = 0x02;
  4201  001D16  0E02               	movlw	2
  4202  001D18  6E97               	movwf	3991,c	;volatile
  4203                           
  4204                           ;pin_manager.c: 70: TRISA = 0xC0;
  4205  001D1A  0EC0               	movlw	192
  4206  001D1C  6E92               	movwf	3986,c	;volatile
  4207                           
  4208                           ;pin_manager.c: 71: TRISG = 0x1F;
  4209  001D1E  0E1F               	movlw	31
  4210  001D20  6E98               	movwf	3992,c	;volatile
  4211                           
  4212                           ;pin_manager.c: 72: TRISB = 0xFF;
  4213  001D22  6893               	setf	3987,c	;volatile
  4214                           
  4215                           ;pin_manager.c: 73: TRISC = 0xFC;
  4216  001D24  0EFC               	movlw	252
  4217  001D26  6E94               	movwf	3988,c	;volatile
  4218                           
  4219                           ;pin_manager.c: 74: TRISD = 0x80;
  4220  001D28  0E80               	movlw	128
  4221  001D2A  6E95               	movwf	3989,c	;volatile
  4222                           
  4223                           ;pin_manager.c: 79: ANCON0 = 0x00;
  4224  001D2C  0E00               	movlw	0
  4225  001D2E  010F               	movlb	15	; () banked
  4226  001D30  6F25               	movwf	37,b	;volatile
  4227                           
  4228                           ;pin_manager.c: 80: ANCON1 = 0x00;
  4229  001D32  0E00               	movlw	0
  4230  001D34  6F24               	movwf	36,b	;volatile
  4231                           
  4232                           ;pin_manager.c: 81: ANCON2 = 0x0F;
  4233  001D36  0E0F               	movlw	15
  4234  001D38  6F23               	movwf	35,b	;volatile
  4235                           
  4236                           ; BSR set to: 15
  4237  001D3A  0012               	return		;funcret
  4238  001D3C                     __end_of_PIN_MANAGER_Initialize:
  4239                           	opt stack 0
  4240                           tblptru	equ	0xFF8
  4241                           tblptrh	equ	0xFF7
  4242                           tblptrl	equ	0xFF6
  4243                           tablat	equ	0xFF5
  4244                           prodh	equ	0xFF4
  4245                           prodl	equ	0xFF3
  4246                           intcon	equ	0xFF2
  4247                           postinc0	equ	0xFEE
  4248                           wreg	equ	0xFE8
  4249                           postdec1	equ	0xFE5
  4250                           fsr1l	equ	0xFE1
  4251                           indf2	equ	0xFDF
  4252                           fsr2h	equ	0xFDA
  4253                           fsr2l	equ	0xFD9
  4254                           status	equ	0xFD8
  4255                           
  4256 ;; *************** function _OSCILLATOR_Initialize *****************
  4257 ;; Defined at:
  4258 ;;		line 138 in file "mcc_generated_files/mcc.c"
  4259 ;; Parameters:    Size  Location     Type
  4260 ;;		None
  4261 ;; Auto vars:     Size  Location     Type
  4262 ;;		None
  4263 ;; Return value:  Size  Location     Type
  4264 ;;                  1    wreg      void 
  4265 ;; Registers used:
  4266 ;;		wreg, status,2
  4267 ;; Tracked objects:
  4268 ;;		On entry : 0/0
  4269 ;;		On exit  : 0/0
  4270 ;;		Unchanged: 0/0
  4271 ;; Data sizes:     COMRAM   BANK0   BANK1   BANK2   BANK3   BANK4   BANK5   BANK6   BANK7   BANK8   BANK9  BANK10  BANK1
      +1  BANK12  BANK13  BANK14  BANK15
  4272 ;;      Params:         0       0       0       0       0       0       0       0       0       0       0       0       
      +0       0       0       0       0
  4273 ;;      Locals:         0       0       0       0       0       0       0       0       0       0       0       0       
      +0       0       0       0       0
  4274 ;;      Temps:          0       0       0       0       0       0       0       0       0       0       0       0       
      +0       0       0       0       0
  4275 ;;      Totals:         0       0       0       0       0       0       0       0       0       0       0       0       
      +0       0       0       0       0
  4276 ;;Total ram usage:        0 bytes
  4277 ;; Hardware stack levels used:    1
  4278 ;; Hardware stack levels required when called:    9
  4279 ;; This function calls:
  4280 ;;		Nothing
  4281 ;; This function is called by:
  4282 ;;		_SYSTEM_Initialize
  4283 ;; This function uses a non-reentrant model
  4284 ;;
  4285                           
  4286                           	psect	text27
  4287  002282                     __ptext27:
  4288                           	opt stack 0
  4289  002282                     _OSCILLATOR_Initialize:
  4290                           	opt stack 20
  4291                           
  4292                           ;mcc.c: 141: OSCCON = 0x60;
  4293                           
  4294                           ; BSR set to: 15
  4295                           ;incstack = 0
  4296  002282  0E60               	movlw	96
  4297  002284  6ED3               	movwf	4051,c	;volatile
  4298                           
  4299                           ;mcc.c: 143: OSCCON2 = 0x00;
  4300  002286  0E00               	movlw	0
  4301  002288  6E64               	movwf	3940,c	;volatile
  4302                           
  4303                           ;mcc.c: 145: OSCTUNE = 0x00;
  4304  00228A  0E00               	movlw	0
  4305  00228C  6E9B               	movwf	3995,c	;volatile
  4306                           
  4307                           ;mcc.c: 147: REFOCON = 0x00;
  4308  00228E  0E00               	movlw	0
  4309  002290  010F               	movlb	15	; () banked
  4310  002292  6F2A               	movwf	42,b	;volatile
  4311                           
  4312                           ; BSR set to: 15
  4313  002294  0012               	return		;funcret
  4314  002296                     __end_of_OSCILLATOR_Initialize:
  4315                           	opt stack 0
  4316                           tblptru	equ	0xFF8
  4317                           tblptrh	equ	0xFF7
  4318                           tblptrl	equ	0xFF6
  4319                           tablat	equ	0xFF5
  4320                           prodh	equ	0xFF4
  4321                           prodl	equ	0xFF3
  4322                           intcon	equ	0xFF2
  4323                           postinc0	equ	0xFEE
  4324                           wreg	equ	0xFE8
  4325                           postdec1	equ	0xFE5
  4326                           fsr1l	equ	0xFE1
  4327                           indf2	equ	0xFDF
  4328                           fsr2h	equ	0xFDA
  4329                           fsr2l	equ	0xFD9
  4330                           status	equ	0xFD8
  4331                           
  4332 ;; *************** function _INTERRUPT_Initialize *****************
  4333 ;; Defined at:
  4334 ;;		line 51 in file "mcc_generated_files/interrupt_manager.c"
  4335 ;; Parameters:    Size  Location     Type
  4336 ;;		None
  4337 ;; Auto vars:     Size  Location     Type
  4338 ;;		None
  4339 ;; Return value:  Size  Location     Type
  4340 ;;                  1    wreg      void 
  4341 ;; Registers used:
  4342 ;;		None
  4343 ;; Tracked objects:
  4344 ;;		On entry : 0/0
  4345 ;;		On exit  : 0/0
  4346 ;;		Unchanged: 0/0
  4347 ;; Data sizes:     COMRAM   BANK0   BANK1   BANK2   BANK3   BANK4   BANK5   BANK6   BANK7   BANK8   BANK9  BANK10  BANK1
      +1  BANK12  BANK13  BANK14  BANK15
  4348 ;;      Params:         0       0       0       0       0       0       0       0       0       0       0       0       
      +0       0       0       0       0
  4349 ;;      Locals:         0       0       0       0       0       0       0       0       0       0       0       0       
      +0       0       0       0       0
  4350 ;;      Temps:          0       0       0       0       0       0       0       0       0       0       0       0       
      +0       0       0       0       0
  4351 ;;      Totals:         0       0       0       0       0       0       0       0       0       0       0       0       
      +0       0       0       0       0
  4352 ;;Total ram usage:        0 bytes
  4353 ;; Hardware stack levels used:    1
  4354 ;; Hardware stack levels required when called:    9
  4355 ;; This function calls:
  4356 ;;		Nothing
  4357 ;; This function is called by:
  4358 ;;		_SYSTEM_Initialize
  4359 ;; This function uses a non-reentrant model
  4360 ;;
  4361                           
  4362                           	psect	text28
  4363  00233C                     __ptext28:
  4364                           	opt stack 0
  4365  00233C                     _INTERRUPT_Initialize:
  4366                           	opt stack 20
  4367                           
  4368                           ;interrupt_manager.c: 54: RCONbits.IPEN = 1;
  4369                           
  4370                           ; BSR set to: 15
  4371                           ;incstack = 0
  4372  00233C  8ED0               	bsf	4048,7,c	;volatile
  4373                           
  4374                           ;interrupt_manager.c: 62: INTCON2bits.TMR0IP = 0;
  4375  00233E  94F1               	bcf	intcon2,2,c	;volatile
  4376  002340  0012               	return		;funcret
  4377  002342                     __end_of_INTERRUPT_Initialize:
  4378                           	opt stack 0
  4379                           tblptru	equ	0xFF8
  4380                           tblptrh	equ	0xFF7
  4381                           tblptrl	equ	0xFF6
  4382                           tablat	equ	0xFF5
  4383                           prodh	equ	0xFF4
  4384                           prodl	equ	0xFF3
  4385                           intcon	equ	0xFF2
  4386                           intcon2	equ	0xFF1
  4387                           postinc0	equ	0xFEE
  4388                           wreg	equ	0xFE8
  4389                           postdec1	equ	0xFE5
  4390                           fsr1l	equ	0xFE1
  4391                           indf2	equ	0xFDF
  4392                           fsr2h	equ	0xFDA
  4393                           fsr2l	equ	0xFD9
  4394                           status	equ	0xFD8
  4395                           
  4396 ;; *************** function _EXT_INT_Initialize *****************
  4397 ;; Defined at:
  4398 ;;		line 59 in file "mcc_generated_files/ext_int.c"
  4399 ;; Parameters:    Size  Location     Type
  4400 ;;		None
  4401 ;; Auto vars:     Size  Location     Type
  4402 ;;		None
  4403 ;; Return value:  Size  Location     Type
  4404 ;;                  1    wreg      void 
  4405 ;; Registers used:
  4406 ;;		wreg, status,2, status,0, cstack
  4407 ;; Tracked objects:
  4408 ;;		On entry : 0/0
  4409 ;;		On exit  : 0/0
  4410 ;;		Unchanged: 0/0
  4411 ;; Data sizes:     COMRAM   BANK0   BANK1   BANK2   BANK3   BANK4   BANK5   BANK6   BANK7   BANK8   BANK9  BANK10  BANK1
      +1  BANK12  BANK13  BANK14  BANK15
  4412 ;;      Params:         0       0       0       0       0       0       0       0       0       0       0       0       
      +0       0       0       0       0
  4413 ;;      Locals:         0       0       0       0       0       0       0       0       0       0       0       0       
      +0       0       0       0       0
  4414 ;;      Temps:          0       0       0       0       0       0       0       0       0       0       0       0       
      +0       0       0       0       0
  4415 ;;      Totals:         0       0       0       0       0       0       0       0       0       0       0       0       
      +0       0       0       0       0
  4416 ;;Total ram usage:        0 bytes
  4417 ;; Hardware stack levels used:    1
  4418 ;; Hardware stack levels required when called:   10
  4419 ;; This function calls:
  4420 ;;		_INT0_SetInterruptHandler
  4421 ;; This function is called by:
  4422 ;;		_SYSTEM_Initialize
  4423 ;; This function uses a non-reentrant model
  4424 ;;
  4425                           
  4426                           	psect	text29
  4427  002212                     __ptext29:
  4428                           	opt stack 0
  4429  002212                     _EXT_INT_Initialize:
  4430                           	opt stack 19
  4431                           
  4432                           ;ext_int.c: 64: (INTCONbits.INT0IF = 0);
  4433                           
  4434                           ;incstack = 0
  4435  002212  92F2               	bcf	intcon,1,c	;volatile
  4436                           
  4437                           ;ext_int.c: 65: (INTCON2bits.INTEDG0 = 0);
  4438  002214  9CF1               	bcf	intcon2,6,c	;volatile
  4439                           
  4440                           ;ext_int.c: 67: INT0_SetInterruptHandler(INT0_DefaultInterruptHandler);
  4441  002216  0E44               	movlw	low _INT0_DefaultInterruptHandler
  4442  002218  0101               	movlb	1	; () banked
  4443  00221A  6F29               	movwf	INT0_SetInterruptHandler@InterruptHandler& (0+255),b
  4444  00221C  0E23               	movlw	high _INT0_DefaultInterruptHandler
  4445  00221E  6F2A               	movwf	(INT0_SetInterruptHandler@InterruptHandler+1)& (0+255),b
  4446  002220  0E00               	movlw	low (_INT0_DefaultInterruptHandler shr (0+16))
  4447  002222  6F2B               	movwf	(INT0_SetInterruptHandler@InterruptHandler+2)& (0+255),b
  4448  002224  EC8D  F011         	call	_INT0_SetInterruptHandler	;wreg free
  4449                           
  4450                           ;ext_int.c: 68: (INTCONbits.INT0IE = 1);
  4451  002228  88F2               	bsf	intcon,4,c	;volatile
  4452  00222A  0012               	return		;funcret
  4453  00222C                     __end_of_EXT_INT_Initialize:
  4454                           	opt stack 0
  4455                           tblptru	equ	0xFF8
  4456                           tblptrh	equ	0xFF7
  4457                           tblptrl	equ	0xFF6
  4458                           tablat	equ	0xFF5
  4459                           prodh	equ	0xFF4
  4460                           prodl	equ	0xFF3
  4461                           intcon	equ	0xFF2
  4462                           intcon2	equ	0xFF1
  4463                           postinc0	equ	0xFEE
  4464                           wreg	equ	0xFE8
  4465                           postdec1	equ	0xFE5
  4466                           fsr1l	equ	0xFE1
  4467                           indf2	equ	0xFDF
  4468                           fsr2h	equ	0xFDA
  4469                           fsr2l	equ	0xFD9
  4470                           status	equ	0xFD8
  4471                           
  4472 ;; *************** function _INT0_SetInterruptHandler *****************
  4473 ;; Defined at:
  4474 ;;		line 50 in file "mcc_generated_files/ext_int.c"
  4475 ;; Parameters:    Size  Location     Type
  4476 ;;  InterruptHan    3    0[BANK1 ] PTR FTN()void 
  4477 ;;		 -> INT0_DefaultInterruptHandler(1), 
  4478 ;; Auto vars:     Size  Location     Type
  4479 ;;		None
  4480 ;; Return value:  Size  Location     Type
  4481 ;;                  1    wreg      void 
  4482 ;; Registers used:
  4483 ;;		wreg, status,2, status,0
  4484 ;; Tracked objects:
  4485 ;;		On entry : 0/0
  4486 ;;		On exit  : 0/0
  4487 ;;		Unchanged: 0/0
  4488 ;; Data sizes:     COMRAM   BANK0   BANK1   BANK2   BANK3   BANK4   BANK5   BANK6   BANK7   BANK8   BANK9  BANK10  BANK1
      +1  BANK12  BANK13  BANK14  BANK15
  4489 ;;      Params:         0       0       3       0       0       0       0       0       0       0       0       0       
      +0       0       0       0       0
  4490 ;;      Locals:         0       0       0       0       0       0       0       0       0       0       0       0       
      +0       0       0       0       0
  4491 ;;      Temps:          0       0       0       0       0       0       0       0       0       0       0       0       
      +0       0       0       0       0
  4492 ;;      Totals:         0       0       3       0       0       0       0       0       0       0       0       0       
      +0       0       0       0       0
  4493 ;;Total ram usage:        3 bytes
  4494 ;; Hardware stack levels used:    1
  4495 ;; Hardware stack levels required when called:    9
  4496 ;; This function calls:
  4497 ;;		Nothing
  4498 ;; This function is called by:
  4499 ;;		_EXT_INT_Initialize
  4500 ;; This function uses a non-reentrant model
  4501 ;;
  4502                           
  4503                           	psect	text30
  4504  00231A                     __ptext30:
  4505                           	opt stack 0
  4506  00231A                     _INT0_SetInterruptHandler:
  4507                           	opt stack 19
  4508                           
  4509                           ;ext_int.c: 51: INT0_InterruptHandler = InterruptHandler;
  4510                           
  4511                           ;incstack = 0
  4512  00231A  C129  F089         	movff	INT0_SetInterruptHandler@InterruptHandler,_INT0_InterruptHandler
  4513  00231E  C12A  F08A         	movff	INT0_SetInterruptHandler@InterruptHandler+1,_INT0_InterruptHandler+1
  4514  002322  C12B  F08B         	movff	INT0_SetInterruptHandler@InterruptHandler+2,_INT0_InterruptHandler+2
  4515  002326  0012               	return		;funcret
  4516  002328                     __end_of_INT0_SetInterruptHandler:
  4517                           	opt stack 0
  4518                           tblptru	equ	0xFF8
  4519                           tblptrh	equ	0xFF7
  4520                           tblptrl	equ	0xFF6
  4521                           tablat	equ	0xFF5
  4522                           prodh	equ	0xFF4
  4523                           prodl	equ	0xFF3
  4524                           intcon	equ	0xFF2
  4525                           intcon2	equ	0xFF1
  4526                           postinc0	equ	0xFEE
  4527                           wreg	equ	0xFE8
  4528                           postdec1	equ	0xFE5
  4529                           fsr1l	equ	0xFE1
  4530                           indf2	equ	0xFDF
  4531                           fsr2h	equ	0xFDA
  4532                           fsr2l	equ	0xFD9
  4533                           status	equ	0xFD8
  4534                           
  4535 ;; *************** function _ADC_Initialize *****************
  4536 ;; Defined at:
  4537 ;;		line 60 in file "mcc_generated_files/adc.c"
  4538 ;; Parameters:    Size  Location     Type
  4539 ;;		None
  4540 ;; Auto vars:     Size  Location     Type
  4541 ;;		None
  4542 ;; Return value:  Size  Location     Type
  4543 ;;                  1    wreg      void 
  4544 ;; Registers used:
  4545 ;;		wreg, status,2
  4546 ;; Tracked objects:
  4547 ;;		On entry : 0/0
  4548 ;;		On exit  : 0/0
  4549 ;;		Unchanged: 0/0
  4550 ;; Data sizes:     COMRAM   BANK0   BANK1   BANK2   BANK3   BANK4   BANK5   BANK6   BANK7   BANK8   BANK9  BANK10  BANK1
      +1  BANK12  BANK13  BANK14  BANK15
  4551 ;;      Params:         0       0       0       0       0       0       0       0       0       0       0       0       
      +0       0       0       0       0
  4552 ;;      Locals:         0       0       0       0       0       0       0       0       0       0       0       0       
      +0       0       0       0       0
  4553 ;;      Temps:          0       0       0       0       0       0       0       0       0       0       0       0       
      +0       0       0       0       0
  4554 ;;      Totals:         0       0       0       0       0       0       0       0       0       0       0       0       
      +0       0       0       0       0
  4555 ;;Total ram usage:        0 bytes
  4556 ;; Hardware stack levels used:    1
  4557 ;; Hardware stack levels required when called:    9
  4558 ;; This function calls:
  4559 ;;		Nothing
  4560 ;; This function is called by:
  4561 ;;		_SYSTEM_Initialize
  4562 ;; This function uses a non-reentrant model
  4563 ;;
  4564                           
  4565                           	psect	text31
  4566  00222C                     __ptext31:
  4567                           	opt stack 0
  4568  00222C                     _ADC_Initialize:
  4569                           	opt stack 20
  4570                           
  4571                           ;adc.c: 65: ADCON0 = 0x19;
  4572                           
  4573                           ;incstack = 0
  4574  00222C  0E19               	movlw	25
  4575  00222E  6EC2               	movwf	4034,c	;volatile
  4576                           
  4577                           ;adc.c: 68: ADCON1 = 0x00;
  4578  002230  0E00               	movlw	0
  4579  002232  6EC1               	movwf	4033,c	;volatile
  4580                           
  4581                           ;adc.c: 71: ADCON2 = 0xA5;
  4582  002234  0EA5               	movlw	165
  4583  002236  6EC0               	movwf	4032,c	;volatile
  4584                           
  4585                           ;adc.c: 74: ADRESH = 0x00;
  4586  002238  0E00               	movlw	0
  4587  00223A  6EC4               	movwf	4036,c	;volatile
  4588                           
  4589                           ;adc.c: 77: ADRESL = 0x00;
  4590  00223C  0E00               	movlw	0
  4591  00223E  6EC3               	movwf	4035,c	;volatile
  4592  002240  0012               	return		;funcret
  4593  002242                     __end_of_ADC_Initialize:
  4594                           	opt stack 0
  4595                           tblptru	equ	0xFF8
  4596                           tblptrh	equ	0xFF7
  4597                           tblptrl	equ	0xFF6
  4598                           tablat	equ	0xFF5
  4599                           prodh	equ	0xFF4
  4600                           prodl	equ	0xFF3
  4601                           intcon	equ	0xFF2
  4602                           intcon2	equ	0xFF1
  4603                           postinc0	equ	0xFEE
  4604                           wreg	equ	0xFE8
  4605                           postdec1	equ	0xFE5
  4606                           fsr1l	equ	0xFE1
  4607                           indf2	equ	0xFDF
  4608                           fsr2h	equ	0xFDA
  4609                           fsr2l	equ	0xFD9
  4610                           status	equ	0xFD8
  4611                           
  4612 ;; *************** function _InitSPI *****************
  4613 ;; Defined at:
  4614 ;;		line 441 in file "zigbee.c"
  4615 ;; Parameters:    Size  Location     Type
  4616 ;;		None
  4617 ;; Auto vars:     Size  Location     Type
  4618 ;;		None
  4619 ;; Return value:  Size  Location     Type
  4620 ;;                  1    wreg      void 
  4621 ;; Registers used:
  4622 ;;		wreg, status,2, status,0, cstack
  4623 ;; Tracked objects:
  4624 ;;		On entry : 0/0
  4625 ;;		On exit  : 0/0
  4626 ;;		Unchanged: 0/0
  4627 ;; Data sizes:     COMRAM   BANK0   BANK1   BANK2   BANK3   BANK4   BANK5   BANK6   BANK7   BANK8   BANK9  BANK10  BANK1
      +1  BANK12  BANK13  BANK14  BANK15
  4628 ;;      Params:         0       0       0       0       0       0       0       0       0       0       0       0       
      +0       0       0       0       0
  4629 ;;      Locals:         0       0       0       0       0       0       0       0       0       0       0       0       
      +0       0       0       0       0
  4630 ;;      Temps:          0       0       0       0       0       0       0       0       0       0       0       0       
      +0       0       0       0       0
  4631 ;;      Totals:         0       0       0       0       0       0       0       0       0       0       0       0       
      +0       0       0       0       0
  4632 ;;Total ram usage:        0 bytes
  4633 ;; Hardware stack levels used:    1
  4634 ;; Hardware stack levels required when called:   10
  4635 ;; This function calls:
  4636 ;;		_delay
  4637 ;; This function is called by:
  4638 ;;		_main
  4639 ;; This function uses a non-reentrant model
  4640 ;;
  4641                           
  4642                           	psect	text32
  4643  00207A                     __ptext32:
  4644                           	opt stack 0
  4645  00207A                     _InitSPI:
  4646                           	opt stack 20
  4647                           
  4648                           ;zigbee.c: 442: SSP1CON1bits.SSPM0 = 0;
  4649                           
  4650                           ;incstack = 0
  4651  00207A  90C6               	bcf	4038,0,c	;volatile
  4652                           
  4653                           ;zigbee.c: 443: SSP1CON1bits.SSPM1 = 0;
  4654  00207C  92C6               	bcf	4038,1,c	;volatile
  4655                           
  4656                           ;zigbee.c: 444: SSP1CON1bits.SSPM2 = 0;
  4657  00207E  94C6               	bcf	4038,2,c	;volatile
  4658                           
  4659                           ;zigbee.c: 445: SSP1CON1bits.SSPM3 = 0;
  4660  002080  96C6               	bcf	4038,3,c	;volatile
  4661                           
  4662                           ;zigbee.c: 447: TRISCbits.TRISC5 = 0;
  4663  002082  9A94               	bcf	3988,5,c	;volatile
  4664                           
  4665                           ;zigbee.c: 448: TRISCbits.TRISC3 = 0;
  4666  002084  9694               	bcf	3988,3,c	;volatile
  4667                           
  4668                           ;zigbee.c: 449: SSP1CON1bits.SSPEN = 1;
  4669  002086  8AC6               	bsf	4038,5,c	;volatile
  4670                           
  4671                           ;zigbee.c: 452: SSP1STATbits.SMP = 1;
  4672  002088  8EC7               	bsf	4039,7,c	;volatile
  4673                           
  4674                           ;zigbee.c: 453: SSP1CON1bits.CKP = 0;
  4675  00208A  98C6               	bcf	4038,4,c	;volatile
  4676                           
  4677                           ;zigbee.c: 454: SSP1STATbits.CKE = 1;
  4678  00208C  8CC7               	bsf	4039,6,c	;volatile
  4679                           
  4680                           ;zigbee.c: 455: delay(10);
  4681  00208E  0E00               	movlw	0
  4682  002090  0101               	movlb	1	; () banked
  4683  002092  6F2A               	movwf	(delay@dly+1)& (0+255),b
  4684  002094  0E0A               	movlw	10
  4685  002096  6F29               	movwf	delay@dly& (0+255),b
  4686  002098  ECA7  F010         	call	_delay	;wreg free
  4687  00209C  0012               	return		;funcret
  4688  00209E                     __end_of_InitSPI:
  4689                           	opt stack 0
  4690                           tblptru	equ	0xFF8
  4691                           tblptrh	equ	0xFF7
  4692                           tblptrl	equ	0xFF6
  4693                           tablat	equ	0xFF5
  4694                           prodh	equ	0xFF4
  4695                           prodl	equ	0xFF3
  4696                           intcon	equ	0xFF2
  4697                           intcon2	equ	0xFF1
  4698                           postinc0	equ	0xFEE
  4699                           wreg	equ	0xFE8
  4700                           postdec1	equ	0xFE5
  4701                           fsr1l	equ	0xFE1
  4702                           indf2	equ	0xFDF
  4703                           fsr2h	equ	0xFDA
  4704                           fsr2l	equ	0xFD9
  4705                           status	equ	0xFD8
  4706                           
  4707 ;; *************** function _delay *****************
  4708 ;; Defined at:
  4709 ;;		line 471 in file "zigbee.c"
  4710 ;; Parameters:    Size  Location     Type
  4711 ;;  dly             2    0[BANK1 ] unsigned int 
  4712 ;; Auto vars:     Size  Location     Type
  4713 ;;  l               2    2[BANK1 ] unsigned int 
  4714 ;; Return value:  Size  Location     Type
  4715 ;;                  1    wreg      void 
  4716 ;; Registers used:
  4717 ;;		wreg, status,2, status,0
  4718 ;; Tracked objects:
  4719 ;;		On entry : 0/0
  4720 ;;		On exit  : 0/0
  4721 ;;		Unchanged: 0/0
  4722 ;; Data sizes:     COMRAM   BANK0   BANK1   BANK2   BANK3   BANK4   BANK5   BANK6   BANK7   BANK8   BANK9  BANK10  BANK1
      +1  BANK12  BANK13  BANK14  BANK15
  4723 ;;      Params:         0       0       2       0       0       0       0       0       0       0       0       0       
      +0       0       0       0       0
  4724 ;;      Locals:         0       0       2       0       0       0       0       0       0       0       0       0       
      +0       0       0       0       0
  4725 ;;      Temps:          0       0       0       0       0       0       0       0       0       0       0       0       
      +0       0       0       0       0
  4726 ;;      Totals:         0       0       4       0       0       0       0       0       0       0       0       0       
      +0       0       0       0       0
  4727 ;;Total ram usage:        4 bytes
  4728 ;; Hardware stack levels used:    1
  4729 ;; Hardware stack levels required when called:    9
  4730 ;; This function calls:
  4731 ;;		Nothing
  4732 ;; This function is called by:
  4733 ;;		_InitSPI
  4734 ;; This function uses a non-reentrant model
  4735 ;;
  4736                           
  4737                           	psect	text33
  4738  00214E                     __ptext33:
  4739                           	opt stack 0
  4740  00214E                     _delay:
  4741                           	opt stack 20
  4742                           
  4743                           ;zigbee.c: 472: unsigned int l;
  4744                           ;zigbee.c: 473: for(l=0;l<dly;l++);
  4745                           
  4746                           ;incstack = 0
  4747  00214E  0E00               	movlw	0
  4748  002150  0101               	movlb	1	; () banked
  4749  002152  6F2C               	movwf	(delay@l+1)& (0+255),b
  4750  002154  0E00               	movlw	0
  4751  002156  6F2B               	movwf	delay@l& (0+255),b
  4752  002158  D002               	goto	l538
  4753  00215A                     
  4754                           ; BSR set to: 1
  4755                           
  4756                           ; BSR set to: 1
  4757  00215A  4B2B               	infsnz	delay@l& (0+255),f,b
  4758  00215C  2B2C               	incf	(delay@l+1)& (0+255),f,b
  4759  00215E                     l538:
  4760                           
  4761                           ; BSR set to: 1
  4762                           
  4763                           ; BSR set to: 1
  4764  00215E  5129               	movf	delay@dly& (0+255),w,b
  4765  002160  5D2B               	subwf	delay@l& (0+255),w,b
  4766  002162  512A               	movf	(delay@dly+1)& (0+255),w,b
  4767  002164  592C               	subwfb	(delay@l+1)& (0+255),w,b
  4768  002166  B0D8               	btfsc	status,0,c
  4769  002168  0012               	return	
  4770  00216A  D7F7               	goto	l539
  4771  00216C                     __end_of_delay:
  4772                           	opt stack 0
  4773                           tblptru	equ	0xFF8
  4774                           tblptrh	equ	0xFF7
  4775                           tblptrl	equ	0xFF6
  4776                           tablat	equ	0xFF5
  4777                           prodh	equ	0xFF4
  4778                           prodl	equ	0xFF3
  4779                           intcon	equ	0xFF2
  4780                           intcon2	equ	0xFF1
  4781                           postinc0	equ	0xFEE
  4782                           wreg	equ	0xFE8
  4783                           postdec1	equ	0xFE5
  4784                           fsr1l	equ	0xFE1
  4785                           indf2	equ	0xFDF
  4786                           fsr2h	equ	0xFDA
  4787                           fsr2l	equ	0xFD9
  4788                           status	equ	0xFD8
  4789                           
  4790 ;; *************** function _Display_LED_Indication *****************
  4791 ;; Defined at:
  4792 ;;		line 477 in file "07_May_LedDisplayMain.c"
  4793 ;; Parameters:    Size  Location     Type
  4794 ;;  Id              1    wreg     unsigned char 
  4795 ;; Auto vars:     Size  Location     Type
  4796 ;;  Id              1    0[BANK1 ] unsigned char 
  4797 ;; Return value:  Size  Location     Type
  4798 ;;                  1    wreg      void 
  4799 ;; Registers used:
  4800 ;;		wreg, status,2, status,0
  4801 ;; Tracked objects:
  4802 ;;		On entry : 0/0
  4803 ;;		On exit  : 0/0
  4804 ;;		Unchanged: 0/0
  4805 ;; Data sizes:     COMRAM   BANK0   BANK1   BANK2   BANK3   BANK4   BANK5   BANK6   BANK7   BANK8   BANK9  BANK10  BANK1
      +1  BANK12  BANK13  BANK14  BANK15
  4806 ;;      Params:         0       0       0       0       0       0       0       0       0       0       0       0       
      +0       0       0       0       0
  4807 ;;      Locals:         0       0       1       0       0       0       0       0       0       0       0       0       
      +0       0       0       0       0
  4808 ;;      Temps:          0       0       0       0       0       0       0       0       0       0       0       0       
      +0       0       0       0       0
  4809 ;;      Totals:         0       0       1       0       0       0       0       0       0       0       0       0       
      +0       0       0       0       0
  4810 ;;Total ram usage:        1 bytes
  4811 ;; Hardware stack levels used:    1
  4812 ;; Hardware stack levels required when called:    9
  4813 ;; This function calls:
  4814 ;;		Nothing
  4815 ;; This function is called by:
  4816 ;;		_main
  4817 ;; This function uses a non-reentrant model
  4818 ;;
  4819                           
  4820                           	psect	text34
  4821  00194E                     __ptext34:
  4822                           	opt stack 0
  4823  00194E                     _Display_LED_Indication:
  4824                           	opt stack 21
  4825                           
  4826                           ; BSR set to: 1
  4827                           ;incstack = 0
  4828                           ;Display_LED_Indication@Id stored from wreg
  4829  00194E  0101               	movlb	1	; () banked
  4830  001950  6F29               	movwf	Display_LED_Indication@Id& (0+255),b
  4831                           
  4832                           ;07_May_LedDisplayMain.c: 479: switch(Id){
  4833  001952  D03E               	goto	l883
  4834  001954                     l884:
  4835                           
  4836                           ; BSR set to: 1
  4837                           ;07_May_LedDisplayMain.c: 482: PORTFbits.RF3=0;PORTFbits.RF4=0;PORTFbits.RF5=0;PORTFbits
      +                          .RF6=0;PORTFbits.RF7=0;
  4838  001954  9685               	bcf	3973,3,c	;volatile
  4839  001956  9885               	bcf	3973,4,c	;volatile
  4840  001958  9A85               	bcf	3973,5,c	;volatile
  4841  00195A  9C85               	bcf	3973,6,c	;volatile
  4842  00195C  9E85               	bcf	3973,7,c	;volatile
  4843                           
  4844                           ;07_May_LedDisplayMain.c: 483: PORTDbits.RD0=0;PORTDbits.RD1=0;PORTDbits.RD2=0;PORTDbits
      +                          .RD3=0;PORTDbits.RD4=0;PORTDbits.RD5=0;PORTDbits.RD6=0;
  4845  00195E  9083               	bcf	3971,0,c	;volatile
  4846  001960  9283               	bcf	3971,1,c	;volatile
  4847  001962  9483               	bcf	3971,2,c	;volatile
  4848  001964  9683               	bcf	3971,3,c	;volatile
  4849  001966  9883               	bcf	3971,4,c	;volatile
  4850  001968  9A83               	bcf	3971,5,c	;volatile
  4851  00196A  9C83               	bcf	3971,6,c	;volatile
  4852                           
  4853                           ; BSR set to: 1
  4854                           ;07_May_LedDisplayMain.c: 484: LED_FRAME[0]=0x00;
  4855  00196C  0E00               	movlw	0
  4856  00196E  0100               	movlb	0	; () banked
  4857  001970  6F8F               	movwf	_LED_FRAME& (0+255),b
  4858                           
  4859                           ;07_May_LedDisplayMain.c: 485: break;
  4860  001972  0012               	return	
  4861  001974                     l886:
  4862                           
  4863                           ; BSR set to: 1
  4864                           ;07_May_LedDisplayMain.c: 487: PORTFbits.RF3=1;
  4865  001974  8685               	bsf	3973,3,c	;volatile
  4866                           
  4867                           ;07_May_LedDisplayMain.c: 488: PORTDbits.RD0=1;
  4868  001976  8083               	bsf	3971,0,c	;volatile
  4869                           
  4870                           ; BSR set to: 1
  4871                           ;07_May_LedDisplayMain.c: 489: LED_FRAME[0]=1;
  4872  001978  0E01               	movlw	1
  4873  00197A  0100               	movlb	0	; () banked
  4874  00197C  6F8F               	movwf	_LED_FRAME& (0+255),b
  4875                           
  4876                           ;07_May_LedDisplayMain.c: 491: break;
  4877  00197E  0012               	return	
  4878  001980                     l887:
  4879                           
  4880                           ; BSR set to: 1
  4881                           ;07_May_LedDisplayMain.c: 493: PORTFbits.RF3=1;
  4882  001980  8685               	bsf	3973,3,c	;volatile
  4883                           
  4884                           ;07_May_LedDisplayMain.c: 494: PORTDbits.RD1=1;
  4885  001982  8283               	bsf	3971,1,c	;volatile
  4886                           
  4887                           ; BSR set to: 1
  4888                           ;07_May_LedDisplayMain.c: 495: LED_FRAME[0]=2;
  4889  001984  0E02               	movlw	2
  4890  001986  0100               	movlb	0	; () banked
  4891  001988  6F8F               	movwf	_LED_FRAME& (0+255),b
  4892                           
  4893                           ;07_May_LedDisplayMain.c: 497: break;
  4894  00198A  0012               	return	
  4895  00198C                     l888:
  4896                           
  4897                           ; BSR set to: 1
  4898                           ;07_May_LedDisplayMain.c: 499: PORTFbits.RF3=1;
  4899  00198C  8685               	bsf	3973,3,c	;volatile
  4900                           
  4901                           ;07_May_LedDisplayMain.c: 500: PORTDbits.RD2=1;
  4902  00198E  8483               	bsf	3971,2,c	;volatile
  4903                           
  4904                           ; BSR set to: 1
  4905                           ;07_May_LedDisplayMain.c: 501: LED_FRAME[0]=4;
  4906  001990  0E04               	movlw	4
  4907  001992  0100               	movlb	0	; () banked
  4908  001994  6F8F               	movwf	_LED_FRAME& (0+255),b
  4909                           
  4910                           ;07_May_LedDisplayMain.c: 503: break;
  4911  001996  0012               	return	
  4912  001998                     l889:
  4913                           
  4914                           ; BSR set to: 1
  4915                           ;07_May_LedDisplayMain.c: 505: PORTFbits.RF3=1;
  4916  001998  8685               	bsf	3973,3,c	;volatile
  4917                           
  4918                           ;07_May_LedDisplayMain.c: 506: PORTDbits.RD3=1;
  4919  00199A  8683               	bsf	3971,3,c	;volatile
  4920                           
  4921                           ; BSR set to: 1
  4922                           ;07_May_LedDisplayMain.c: 507: LED_FRAME[0]=8;
  4923  00199C  0E08               	movlw	8
  4924  00199E  0100               	movlb	0	; () banked
  4925  0019A0  6F8F               	movwf	_LED_FRAME& (0+255),b
  4926                           
  4927                           ;07_May_LedDisplayMain.c: 509: break;
  4928  0019A2  0012               	return	
  4929  0019A4                     l890:
  4930                           
  4931                           ; BSR set to: 1
  4932                           ;07_May_LedDisplayMain.c: 511: PORTFbits.RF3=1;
  4933  0019A4  8685               	bsf	3973,3,c	;volatile
  4934                           
  4935                           ;07_May_LedDisplayMain.c: 512: PORTDbits.RD4=1;
  4936  0019A6  8883               	bsf	3971,4,c	;volatile
  4937                           
  4938                           ;07_May_LedDisplayMain.c: 513: break;
  4939  0019A8  0012               	return	
  4940  0019AA                     l891:
  4941                           
  4942                           ; BSR set to: 1
  4943                           ;07_May_LedDisplayMain.c: 515: PORTFbits.RF3=1;
  4944  0019AA  8685               	bsf	3973,3,c	;volatile
  4945                           
  4946                           ;07_May_LedDisplayMain.c: 516: PORTDbits.RD5=1;
  4947  0019AC  8A83               	bsf	3971,5,c	;volatile
  4948                           
  4949                           ;07_May_LedDisplayMain.c: 517: break;
  4950  0019AE  0012               	return	
  4951  0019B0                     l892:
  4952                           
  4953                           ; BSR set to: 1
  4954                           ;07_May_LedDisplayMain.c: 519: PORTFbits.RF3=1;
  4955  0019B0  8685               	bsf	3973,3,c	;volatile
  4956                           
  4957                           ;07_May_LedDisplayMain.c: 520: PORTDbits.RD6=1;
  4958  0019B2  8C83               	bsf	3971,6,c	;volatile
  4959                           
  4960                           ;07_May_LedDisplayMain.c: 521: break;
  4961  0019B4  0012               	return	
  4962  0019B6                     l893:
  4963                           
  4964                           ; BSR set to: 1
  4965                           ;07_May_LedDisplayMain.c: 523: PORTFbits.RF3=0;PORTFbits.RF4=0;PORTFbits.RF5=0;PORTFbits
      +                          .RF6=0;PORTFbits.RF7=0;
  4966  0019B6  9685               	bcf	3973,3,c	;volatile
  4967  0019B8  9885               	bcf	3973,4,c	;volatile
  4968  0019BA  9A85               	bcf	3973,5,c	;volatile
  4969  0019BC  9C85               	bcf	3973,6,c	;volatile
  4970  0019BE  9E85               	bcf	3973,7,c	;volatile
  4971                           
  4972                           ;07_May_LedDisplayMain.c: 524: PORTDbits.RD0=0;PORTDbits.RD1=0;PORTDbits.RD2=0;PORTDbits
      +                          .RD3=0;PORTDbits.RD4=0;PORTDbits.RD5=0;PORTDbits.RD6=0;
  4973  0019C0  9083               	bcf	3971,0,c	;volatile
  4974  0019C2  9283               	bcf	3971,1,c	;volatile
  4975  0019C4  9483               	bcf	3971,2,c	;volatile
  4976  0019C6  9683               	bcf	3971,3,c	;volatile
  4977  0019C8  9883               	bcf	3971,4,c	;volatile
  4978  0019CA  9A83               	bcf	3971,5,c	;volatile
  4979  0019CC  9C83               	bcf	3971,6,c	;volatile
  4980                           
  4981                           ; BSR set to: 1
  4982                           ;07_May_LedDisplayMain.c: 526: }
  4983                           
  4984                           ;07_May_LedDisplayMain.c: 525: break;
  4985  0019CE  0012               	return	
  4986  0019D0                     l883:
  4987                           
  4988                           ; BSR set to: 1
  4989  0019D0  0101               	movlb	1	; () banked
  4990  0019D2  5129               	movf	Display_LED_Indication@Id& (0+255),w,b
  4991                           
  4992                           ; Switch size 1, requested type "space"
  4993                           ; Number of cases is 8, Range of values is 0 to 7
  4994                           ; switch strategies available:
  4995                           ; Name         Instructions Cycles
  4996                           ; simple_byte           25    13 (average)
  4997                           ;	Chosen strategy is simple_byte
  4998  0019D4  0A00               	xorlw	0	; case 0
  4999  0019D6  B4D8               	btfsc	status,2,c
  5000  0019D8  D7BD               	goto	l884
  5001  0019DA  0A01               	xorlw	1	; case 1
  5002  0019DC  B4D8               	btfsc	status,2,c
  5003  0019DE  D7CA               	goto	l886
  5004  0019E0  0A03               	xorlw	3	; case 2
  5005  0019E2  B4D8               	btfsc	status,2,c
  5006  0019E4  D7CD               	goto	l887
  5007  0019E6  0A01               	xorlw	1	; case 3
  5008  0019E8  B4D8               	btfsc	status,2,c
  5009  0019EA  D7D0               	goto	l888
  5010  0019EC  0A07               	xorlw	7	; case 4
  5011  0019EE  B4D8               	btfsc	status,2,c
  5012  0019F0  D7D3               	goto	l889
  5013  0019F2  0A01               	xorlw	1	; case 5
  5014  0019F4  B4D8               	btfsc	status,2,c
  5015  0019F6  D7D6               	goto	l890
  5016  0019F8  0A03               	xorlw	3	; case 6
  5017  0019FA  B4D8               	btfsc	status,2,c
  5018  0019FC  D7D6               	goto	l891
  5019  0019FE  0A01               	xorlw	1	; case 7
  5020  001A00  B4D8               	btfsc	status,2,c
  5021  001A02  D7D6               	goto	l892
  5022  001A04  D7D8               	goto	l893
  5023  001A06                     __end_of_Display_LED_Indication:
  5024                           	opt stack 0
  5025                           tblptru	equ	0xFF8
  5026                           tblptrh	equ	0xFF7
  5027                           tblptrl	equ	0xFF6
  5028                           tablat	equ	0xFF5
  5029                           prodh	equ	0xFF4
  5030                           prodl	equ	0xFF3
  5031                           intcon	equ	0xFF2
  5032                           intcon2	equ	0xFF1
  5033                           postinc0	equ	0xFEE
  5034                           wreg	equ	0xFE8
  5035                           postdec1	equ	0xFE5
  5036                           fsr1l	equ	0xFE1
  5037                           indf2	equ	0xFDF
  5038                           fsr2h	equ	0xFDA
  5039                           fsr2l	equ	0xFD9
  5040                           status	equ	0xFD8
  5041                           
  5042 ;; *************** function _Clear_Data *****************
  5043 ;; Defined at:
  5044 ;;		line 4 in file "zigbee.c"
  5045 ;; Parameters:    Size  Location     Type
  5046 ;;		None
  5047 ;; Auto vars:     Size  Location     Type
  5048 ;;  n               2    0[BANK1 ] unsigned int 
  5049 ;; Return value:  Size  Location     Type
  5050 ;;                  1    wreg      void 
  5051 ;; Registers used:
  5052 ;;		wreg, fsr2l, fsr2h, status,2, status,0
  5053 ;; Tracked objects:
  5054 ;;		On entry : 0/0
  5055 ;;		On exit  : 0/0
  5056 ;;		Unchanged: 0/0
  5057 ;; Data sizes:     COMRAM   BANK0   BANK1   BANK2   BANK3   BANK4   BANK5   BANK6   BANK7   BANK8   BANK9  BANK10  BANK1
      +1  BANK12  BANK13  BANK14  BANK15
  5058 ;;      Params:         0       0       0       0       0       0       0       0       0       0       0       0       
      +0       0       0       0       0
  5059 ;;      Locals:         0       0       2       0       0       0       0       0       0       0       0       0       
      +0       0       0       0       0
  5060 ;;      Temps:          0       0       0       0       0       0       0       0       0       0       0       0       
      +0       0       0       0       0
  5061 ;;      Totals:         0       0       2       0       0       0       0       0       0       0       0       0       
      +0       0       0       0       0
  5062 ;;Total ram usage:        2 bytes
  5063 ;; Hardware stack levels used:    1
  5064 ;; Hardware stack levels required when called:    9
  5065 ;; This function calls:
  5066 ;;		Nothing
  5067 ;; This function is called by:
  5068 ;;		_main
  5069 ;; This function uses a non-reentrant model
  5070 ;;
  5071                           
  5072                           	psect	text35
  5073  001EBE                     __ptext35:
  5074                           	opt stack 0
  5075  001EBE                     _Clear_Data:
  5076                           	opt stack 21
  5077                           
  5078                           ;zigbee.c: 5: unsigned int n=0;
  5079                           
  5080                           ;incstack = 0
  5081  001EBE  0E00               	movlw	0
  5082  001EC0  0101               	movlb	1	; () banked
  5083  001EC2  6F2A               	movwf	(Clear_Data@n+1)& (0+255),b
  5084  001EC4  0E00               	movlw	0
  5085  001EC6  6F29               	movwf	Clear_Data@n& (0+255),b
  5086                           
  5087                           ;zigbee.c: 6: for(n=0;n<=5;n++){
  5088  001EC8  0E00               	movlw	0
  5089  001ECA  6F2A               	movwf	(Clear_Data@n+1)& (0+255),b
  5090  001ECC  0E00               	movlw	0
  5091  001ECE  6F29               	movwf	Clear_Data@n& (0+255),b
  5092  001ED0                     l3486:
  5093                           
  5094                           ; BSR set to: 1
  5095  001ED0  512A               	movf	(Clear_Data@n+1)& (0+255),w,b
  5096  001ED2  E10F               	bnz	l384
  5097  001ED4  0E06               	movlw	6
  5098  001ED6  5D29               	subwf	Clear_Data@n& (0+255),w,b
  5099  001ED8  B0D8               	btfsc	status,0,c
  5100  001EDA  0012               	return	
  5101                           
  5102                           ; BSR set to: 1
  5103                           ;zigbee.c: 7: DATA_RX[n]=0;
  5104                           
  5105                           ; BSR set to: 1
  5106                           
  5107                           ; BSR set to: 1
  5108  001EDC  0EB3               	movlw	low _DATA_RX
  5109  001EDE  2529               	addwf	Clear_Data@n& (0+255),w,b
  5110  001EE0  6ED9               	movwf	fsr2l,c
  5111  001EE2  0E00               	movlw	high _DATA_RX
  5112  001EE4  212A               	addwfc	(Clear_Data@n+1)& (0+255),w,b
  5113  001EE6  6EDA               	movwf	fsr2h,c
  5114  001EE8  0E00               	movlw	0
  5115  001EEA  6EDF               	movwf	indf2,c
  5116                           
  5117                           ; BSR set to: 1
  5118  001EEC  4B29               	infsnz	Clear_Data@n& (0+255),f,b
  5119  001EEE  2B2A               	incf	(Clear_Data@n+1)& (0+255),f,b
  5120  001EF0  D7EF               	goto	l3486
  5121  001EF2                     l384:
  5122                           
  5123                           ; BSR set to: 1
  5124  001EF2  0012               	return		;funcret
  5125  001EF4                     __end_of_Clear_Data:
  5126                           	opt stack 0
  5127                           tblptru	equ	0xFF8
  5128                           tblptrh	equ	0xFF7
  5129                           tblptrl	equ	0xFF6
  5130                           tablat	equ	0xFF5
  5131                           prodh	equ	0xFF4
  5132                           prodl	equ	0xFF3
  5133                           intcon	equ	0xFF2
  5134                           intcon2	equ	0xFF1
  5135                           postinc0	equ	0xFEE
  5136                           wreg	equ	0xFE8
  5137                           postdec1	equ	0xFE5
  5138                           fsr1l	equ	0xFE1
  5139                           indf2	equ	0xFDF
  5140                           fsr2h	equ	0xFDA
  5141                           fsr2l	equ	0xFD9
  5142                           status	equ	0xFD8
  5143                           
  5144 ;; *************** function _INTERRUPT_InterruptManagerLow *****************
  5145 ;; Defined at:
  5146 ;;		line 69 in file "07_May_LedDisplayMain.c"
  5147 ;; Parameters:    Size  Location     Type
  5148 ;;		None
  5149 ;; Auto vars:     Size  Location     Type
  5150 ;;		None
  5151 ;; Return value:  Size  Location     Type
  5152 ;;                  1    wreg      void 
  5153 ;; Registers used:
  5154 ;;		wreg, fsr1l, fsr1h, fsr2l, fsr2h, status,2, status,0, pclath, tosl, tblptrl, tblptrh, tblptru, prodl, prodh, cstack
  5155 ;; Tracked objects:
  5156 ;;		On entry : 0/0
  5157 ;;		On exit  : 0/0
  5158 ;;		Unchanged: 0/0
  5159 ;; Data sizes:     COMRAM   BANK0   BANK1   BANK2   BANK3   BANK4   BANK5   BANK6   BANK7   BANK8   BANK9  BANK10  BANK1
      +1  BANK12  BANK13  BANK14  BANK15
  5160 ;;      Params:         0       0       0       0       0       0       0       0       0       0       0       0       
      +0       0       0       0       0
  5161 ;;      Locals:         0       0       0       0       0       0       0       0       0       0       0       0       
      +0       0       0       0       0
  5162 ;;      Temps:          0      21       0       0       0       0       0       0       0       0       0       0       
      +0       0       0       0       0
  5163 ;;      Totals:         0      21       0       0       0       0       0       0       0       0       0       0       
      +0       0       0       0       0
  5164 ;;Total ram usage:       21 bytes
  5165 ;; Hardware stack levels used:    1
  5166 ;; Hardware stack levels required when called:    8
  5167 ;; This function calls:
  5168 ;;		_TMR0_ISR
  5169 ;;		_write_TX_normal_FIFO
  5170 ;;		i1_Delay_ms
  5171 ;; This function is called by:
  5172 ;;		Interrupt level 1
  5173 ;; This function uses a non-reentrant model
  5174 ;;
  5175                           
  5176                           	psect	intcodelo
  5177  000018                     __pintcodelo:
  5178                           	opt stack 0
  5179  000018                     _INTERRUPT_InterruptManagerLow:
  5180                           	opt stack 17
  5181                           
  5182                           ; BSR set to: 1
  5183                           ;incstack = 0
  5184  000018  804F               	bsf	btemp,0,c	;set compiler interrupt flag (level 1)
  5185  00001A  CFD8 F0CB          	movff	status,??_INTERRUPT_InterruptManagerLow
  5186  00001E  CFE8 F0CC          	movff	wreg,??_INTERRUPT_InterruptManagerLow+1
  5187  000022  CFE0 F0CD          	movff	bsr,??_INTERRUPT_InterruptManagerLow+2
  5188  000026  CFFA F0CE          	movff	pclath,??_INTERRUPT_InterruptManagerLow+3
  5189  00002A  CFFB F0CF          	movff	pclatu,??_INTERRUPT_InterruptManagerLow+4
  5190  00002E  CFE9 F0D0          	movff	fsr0l,??_INTERRUPT_InterruptManagerLow+5
  5191  000032  CFEA F0D1          	movff	fsr0h,??_INTERRUPT_InterruptManagerLow+6
  5192  000036  CFE1 F0D2          	movff	fsr1l,??_INTERRUPT_InterruptManagerLow+7
  5193  00003A  CFE2 F0D3          	movff	fsr1h,??_INTERRUPT_InterruptManagerLow+8
  5194  00003E  CFD9 F0D4          	movff	fsr2l,??_INTERRUPT_InterruptManagerLow+9
  5195  000042  CFDA F0D5          	movff	fsr2h,??_INTERRUPT_InterruptManagerLow+10
  5196  000046  CFF3 F0D6          	movff	prodl,??_INTERRUPT_InterruptManagerLow+11
  5197  00004A  CFF4 F0D7          	movff	prodh,??_INTERRUPT_InterruptManagerLow+12
  5198  00004E  CFF6 F0D8          	movff	tblptrl,??_INTERRUPT_InterruptManagerLow+13
  5199  000052  CFF7 F0D9          	movff	tblptrh,??_INTERRUPT_InterruptManagerLow+14
  5200  000056  CFF8 F0DA          	movff	tblptru,??_INTERRUPT_InterruptManagerLow+15
  5201  00005A  CFF5 F0DB          	movff	tablat,??_INTERRUPT_InterruptManagerLow+16
  5202  00005E  C04F  F0DC         	movff	btemp,??_INTERRUPT_InterruptManagerLow+17
  5203  000062  C050  F0DD         	movff	btemp+1,??_INTERRUPT_InterruptManagerLow+18
  5204  000066  C051  F0DE         	movff	btemp+2,??_INTERRUPT_InterruptManagerLow+19
  5205  00006A  C052  F0DF         	movff	btemp+3,??_INTERRUPT_InterruptManagerLow+20
  5206                           
  5207                           ;07_May_LedDisplayMain.c: 72: if(INTCONbits.TMR0IE == 1 && INTCONbits.TMR0IF == 1)
  5208  00006E  BAF2               	btfsc	intcon,5,c	;volatile
  5209  000070  A4F2               	btfss	intcon,2,c	;volatile
  5210  000072  D027               	goto	i1l852
  5211                           
  5212                           ;07_May_LedDisplayMain.c: 73: {
  5213                           ;07_May_LedDisplayMain.c: 74: tick++;
  5214  000074  2A03               	incf	_tick,f,c
  5215                           
  5216                           ;07_May_LedDisplayMain.c: 75: if(( CRC == Rv_CRC ) && (ZigBee_Receive_Buffer[0]=='@')){
  5217  000076  0100               	movlb	0	; () banked
  5218  000078  519D               	movf	_Rv_CRC& (0+255),w,b
  5219  00007A  1999               	xorwf	_CRC& (0+255),w,b
  5220  00007C  E11A               	bnz	i1l4022
  5221  00007E  519E               	movf	(_Rv_CRC+1)& (0+255),w,b
  5222  000080  199A               	xorwf	(_CRC+1)& (0+255),w,b
  5223  000082  A4D8               	btfss	status,2,c
  5224  000084  D016               	goto	i1l853
  5225                           
  5226                           ; BSR set to: 0
  5227  000086  0E40               	movlw	64
  5228  000088  1972               	xorwf	_ZigBee_Receive_Buffer& (0+255),w,b
  5229  00008A  A4D8               	btfss	status,2,c
  5230  00008C  D012               	goto	i1l853
  5231                           
  5232                           ; BSR set to: 0
  5233                           ;07_May_LedDisplayMain.c: 78: PORTAbits.RA3=0;
  5234  00008E  9680               	bcf	3968,3,c	;volatile
  5235                           
  5236                           ; BSR set to: 0
  5237                           ;07_May_LedDisplayMain.c: 79: ZigBee_Receive_Buffer[0]=0x00;
  5238  000090  0E00               	movlw	0
  5239  000092  6F72               	movwf	_ZigBee_Receive_Buffer& (0+255),b
  5240                           
  5241                           ;07_May_LedDisplayMain.c: 80: data_TX_normal_FIFO[13]='@';
  5242  000094  0E40               	movlw	64
  5243  000096  6F6D               	movwf	(_data_TX_normal_FIFO+13)& (0+255),b
  5244                           
  5245                           ; BSR set to: 0
  5246                           ;07_May_LedDisplayMain.c: 81: data_TX_normal_FIFO[14]=LED_FRAME[0];
  5247  000098  C08F  F06E         	movff	_LED_FRAME,_data_TX_normal_FIFO+14
  5248                           
  5249                           ; BSR set to: 0
  5250                           ;07_May_LedDisplayMain.c: 82: Delay_ms(50);
  5251  00009C  0E00               	movlw	0
  5252  00009E  6FBC               	movwf	(i1Delay_ms@time+1)& (0+255),b
  5253  0000A0  0E32               	movlw	50
  5254  0000A2  6FBB               	movwf	i1Delay_ms@time& (0+255),b
  5255  0000A4  ECE1  F010         	call	i1_Delay_ms	;wreg free
  5256                           
  5257                           ;07_May_LedDisplayMain.c: 83: write_TX_normal_FIFO();
  5258  0000A8  EC26  F00B         	call	_write_TX_normal_FIFO	;wreg free
  5259                           
  5260                           ;07_May_LedDisplayMain.c: 84: PORTAbits.RA3=1;
  5261  0000AC  8680               	bsf	3968,3,c	;volatile
  5262                           
  5263                           ;07_May_LedDisplayMain.c: 85: __nop();
  5264  0000AE  F000               	nop	
  5265                           
  5266                           ;07_May_LedDisplayMain.c: 86: __nop();
  5267  0000B0  F000               	nop	
  5268  0000B2                     i1l853:
  5269  0000B2                     i1l4022:
  5270                           
  5271                           ;07_May_LedDisplayMain.c: 89: }
  5272                           ;07_May_LedDisplayMain.c: 90: if( tick > 2 ){
  5273  0000B2  0E02               	movlw	2
  5274  0000B4  6403               	cpfsgt	_tick,c
  5275  0000B6  D003               	goto	i1l854
  5276                           
  5277                           ;07_May_LedDisplayMain.c: 92: F_LED1=1;
  5278  0000B8  0E01               	movlw	1
  5279  0000BA  0100               	movlb	0	; () banked
  5280  0000BC  6FA8               	movwf	_F_LED1& (0+255),b
  5281  0000BE                     i1l854:
  5282                           
  5283                           ;07_May_LedDisplayMain.c: 93: }
  5284                           ;07_May_LedDisplayMain.c: 96: TMR0_ISR();
  5285                           
  5286                           ; BSR set to: 0
  5287  0000BE  EC94  F011         	call	_TMR0_ISR	;wreg free
  5288  0000C2                     i1l852:
  5289                           
  5290                           ;07_May_LedDisplayMain.c: 98: else
  5291                           ;07_May_LedDisplayMain.c: 99: {
  5292  0000C2  C0DF  F052         	movff	??_INTERRUPT_InterruptManagerLow+20,btemp+3
  5293  0000C6  C0DE  F051         	movff	??_INTERRUPT_InterruptManagerLow+19,btemp+2
  5294  0000CA  C0DD  F050         	movff	??_INTERRUPT_InterruptManagerLow+18,btemp+1
  5295  0000CE  C0DC  F04F         	movff	??_INTERRUPT_InterruptManagerLow+17,btemp
  5296  0000D2  C0DB  FFF5         	movff	??_INTERRUPT_InterruptManagerLow+16,tablat
  5297  0000D6  C0DA  FFF8         	movff	??_INTERRUPT_InterruptManagerLow+15,tblptru
  5298  0000DA  C0D9  FFF7         	movff	??_INTERRUPT_InterruptManagerLow+14,tblptrh
  5299  0000DE  C0D8  FFF6         	movff	??_INTERRUPT_InterruptManagerLow+13,tblptrl
  5300  0000E2  C0D7  FFF4         	movff	??_INTERRUPT_InterruptManagerLow+12,prodh
  5301  0000E6  C0D6  FFF3         	movff	??_INTERRUPT_InterruptManagerLow+11,prodl
  5302  0000EA  C0D5  FFDA         	movff	??_INTERRUPT_InterruptManagerLow+10,fsr2h
  5303  0000EE  C0D4  FFD9         	movff	??_INTERRUPT_InterruptManagerLow+9,fsr2l
  5304  0000F2  C0D3  FFE2         	movff	??_INTERRUPT_InterruptManagerLow+8,fsr1h
  5305  0000F6  C0D2  FFE1         	movff	??_INTERRUPT_InterruptManagerLow+7,fsr1l
  5306  0000FA  C0D1  FFEA         	movff	??_INTERRUPT_InterruptManagerLow+6,fsr0h
  5307  0000FE  C0D0  FFE9         	movff	??_INTERRUPT_InterruptManagerLow+5,fsr0l
  5308  000102  C0CF  FFFB         	movff	??_INTERRUPT_InterruptManagerLow+4,pclatu
  5309  000106  C0CE  FFFA         	movff	??_INTERRUPT_InterruptManagerLow+3,pclath
  5310  00010A  C0CD  FFE0         	movff	??_INTERRUPT_InterruptManagerLow+2,bsr
  5311  00010E  C0CC  FFE8         	movff	??_INTERRUPT_InterruptManagerLow+1,wreg
  5312  000112  C0CB  FFD8         	movff	??_INTERRUPT_InterruptManagerLow,status
  5313  000116  904F               	bcf	btemp,0,c	;clear compiler interrupt flag (level 1)
  5314  000118  0010               	retfie	
  5315  00011A                     __end_of_INTERRUPT_InterruptManagerLow:
  5316                           	opt stack 0
  5317                           pclatu	equ	0xFFB
  5318                           pclath	equ	0xFFA
  5319                           tblptru	equ	0xFF8
  5320                           tblptrh	equ	0xFF7
  5321                           tblptrl	equ	0xFF6
  5322                           tablat	equ	0xFF5
  5323                           prodh	equ	0xFF4
  5324                           prodl	equ	0xFF3
  5325                           intcon	equ	0xFF2
  5326                           intcon2	equ	0xFF1
  5327                           postinc0	equ	0xFEE
  5328                           fsr0h	equ	0xFEA
  5329                           fsr0l	equ	0xFE9
  5330                           wreg	equ	0xFE8
  5331                           postdec1	equ	0xFE5
  5332                           fsr1h	equ	0xFE2
  5333                           fsr1l	equ	0xFE1
  5334                           bsr	equ	0xFE0
  5335                           indf2	equ	0xFDF
  5336                           fsr2h	equ	0xFDA
  5337                           fsr2l	equ	0xFD9
  5338                           status	equ	0xFD8
  5339                           
  5340 ;; *************** function _write_TX_normal_FIFO *****************
  5341 ;; Defined at:
  5342 ;;		line 334 in file "zigbee.c"
  5343 ;; Parameters:    Size  Location     Type
  5344 ;;		None
  5345 ;; Auto vars:     Size  Location     Type
  5346 ;;  i               1   15[BANK0 ] unsigned char 
  5347 ;;  n               1   14[BANK0 ] unsigned char 
  5348 ;; Return value:  Size  Location     Type
  5349 ;;                  1    wreg      void 
  5350 ;; Registers used:
  5351 ;;		wreg, fsr1l, fsr1h, fsr2l, fsr2h, status,2, status,0, tblptrl, tblptrh, tblptru, prodl, prodh, cstack
  5352 ;; Tracked objects:
  5353 ;;		On entry : 0/0
  5354 ;;		On exit  : 0/0
  5355 ;;		Unchanged: 0/0
  5356 ;; Data sizes:     COMRAM   BANK0   BANK1   BANK2   BANK3   BANK4   BANK5   BANK6   BANK7   BANK8   BANK9  BANK10  BANK1
      +1  BANK12  BANK13  BANK14  BANK15
  5357 ;;      Params:         0       0       0       0       0       0       0       0       0       0       0       0       
      +0       0       0       0       0
  5358 ;;      Locals:         0       2       0       0       0       0       0       0       0       0       0       0       
      +0       0       0       0       0
  5359 ;;      Temps:          0       5       0       0       0       0       0       0       0       0       0       0       
      +0       0       0       0       0
  5360 ;;      Totals:         0       7       0       0       0       0       0       0       0       0       0       0       
      +0       0       0       0       0
  5361 ;;Total ram usage:        7 bytes
  5362 ;; Hardware stack levels used:    1
  5363 ;; Hardware stack levels required when called:    7
  5364 ;; This function calls:
  5365 ;;		_Xor_check
  5366 ;;		_set_not_ACK
  5367 ;;		_set_not_encrypt
  5368 ;;		_start_transmit
  5369 ;;		i1_Delay_ms
  5370 ;;		i1_write_ZIGBEE_long
  5371 ;; This function is called by:
  5372 ;;		_INTERRUPT_InterruptManagerLow
  5373 ;; This function uses a non-reentrant model
  5374 ;;
  5375                           
  5376                           	psect	text37
  5377  00164C                     __ptext37:
  5378                           	opt stack 0
  5379  00164C                     _write_TX_normal_FIFO:
  5380                           	opt stack 17
  5381                           
  5382                           ;zigbee.c: 335: unsigned char i = 0,n = 0;
  5383                           
  5384                           ;incstack = 0
  5385  00164C  0E00               	movlw	0
  5386  00164E  0100               	movlb	0	; () banked
  5387  001650  6FCA               	movwf	write_TX_normal_FIFO@i& (0+255),b
  5388  001652  0E00               	movlw	0
  5389  001654  6FC9               	movwf	write_TX_normal_FIFO@n& (0+255),b
  5390                           
  5391                           ; BSR set to: 0
  5392                           ;zigbee.c: 337: data_TX_normal_FIFO[0] = HEADER_LENGHT;
  5393  001656  0E0D               	movlw	low _HEADER_LENGHT
  5394  001658  6EF6               	movwf	tblptrl,c
  5395  00165A                     	if	1	;There is more than 1 active tblptr byte
  5396  00165A  0E10               	movlw	high _HEADER_LENGHT
  5397  00165C  6EF7               	movwf	tblptrh,c
  5398  00165E                     	endif
  5399  00165E                     	if	1	;There are 3 active tblptr bytes
  5400  00165E  0E00               	movlw	low (_HEADER_LENGHT shr (0+16))
  5401  001660  6EF8               	movwf	tblptru,c
  5402  001662                     	endif
  5403  001662  0008               	tblrd		*
  5404  001664  CFF5 F060          	movff	tablat,_data_TX_normal_FIFO
  5405                           
  5406                           ; BSR set to: 0
  5407                           ;zigbee.c: 338: data_TX_normal_FIFO[1] = HEADER_LENGHT + DATA_LENGHT;
  5408  001668  0E0E               	movlw	low _DATA_LENGHT
  5409  00166A  6EF6               	movwf	tblptrl,c
  5410  00166C                     	if	1	;There is more than 1 active tblptr byte
  5411  00166C  0E10               	movlw	high _DATA_LENGHT
  5412  00166E  6EF7               	movwf	tblptrh,c
  5413  001670                     	endif
  5414  001670                     	if	1	;There are 3 active tblptr bytes
  5415  001670  0E00               	movlw	low (_DATA_LENGHT shr (0+16))
  5416  001672  6EF8               	movwf	tblptru,c
  5417  001674                     	endif
  5418  001674  0008               	tblrd		*
  5419  001676  CFF5 F0C4          	movff	tablat,??_write_TX_normal_FIFO
  5420  00167A  0E0D               	movlw	low _HEADER_LENGHT
  5421  00167C  6EF6               	movwf	tblptrl,c
  5422  00167E                     	if	1	;There is more than 1 active tblptr byte
  5423  00167E  0E10               	movlw	high _HEADER_LENGHT
  5424  001680  6EF7               	movwf	tblptrh,c
  5425  001682                     	endif
  5426  001682                     	if	1	;There are 3 active tblptr bytes
  5427  001682  0E00               	movlw	low (_HEADER_LENGHT shr (0+16))
  5428  001684  6EF8               	movwf	tblptru,c
  5429  001686                     	endif
  5430  001686  0008               	tblrd		*
  5431  001688  50F5               	movf	tablat,w,c
  5432  00168A  25C4               	addwf	??_write_TX_normal_FIFO& (0+255),w,b
  5433  00168C  6F61               	movwf	(_data_TX_normal_FIFO+1)& (0+255),b
  5434                           
  5435                           ; BSR set to: 0
  5436                           ;zigbee.c: 339: data_TX_normal_FIFO[2] = 0x01;
  5437  00168E  0E01               	movlw	1
  5438  001690  6F62               	movwf	(_data_TX_normal_FIFO+2)& (0+255),b
  5439                           
  5440                           ; BSR set to: 0
  5441                           ;zigbee.c: 340: data_TX_normal_FIFO[3] = 0x88;
  5442  001692  0E88               	movlw	136
  5443  001694  6F63               	movwf	(_data_TX_normal_FIFO+3)& (0+255),b
  5444                           
  5445                           ; BSR set to: 0
  5446                           ;zigbee.c: 341: data_TX_normal_FIFO[4] = SEQ_NUMBER;
  5447  001696  C04E  F064         	movff	_SEQ_NUMBER,_data_TX_normal_FIFO+4
  5448                           
  5449                           ; BSR set to: 0
  5450                           ;zigbee.c: 342: data_TX_normal_FIFO[5] = PAN_ID_2[1];
  5451  00169A  C0F7  F065         	movff	_PAN_ID_2+1,_data_TX_normal_FIFO+5
  5452                           
  5453                           ; BSR set to: 0
  5454                           ;zigbee.c: 343: data_TX_normal_FIFO[6] = PAN_ID_2[0];
  5455  00169E  C0F6  F066         	movff	_PAN_ID_2,_data_TX_normal_FIFO+6
  5456                           
  5457                           ; BSR set to: 0
  5458                           ;zigbee.c: 344: data_TX_normal_FIFO[7] = ADDRESS_short_2[0];
  5459  0016A2  C0F8  F067         	movff	_ADDRESS_short_2,_data_TX_normal_FIFO+7
  5460                           
  5461                           ; BSR set to: 0
  5462                           ;zigbee.c: 345: data_TX_normal_FIFO[8] = ADDRESS_short_2[1];
  5463  0016A6  C0F9  F068         	movff	_ADDRESS_short_2+1,_data_TX_normal_FIFO+8
  5464                           
  5465                           ; BSR set to: 0
  5466                           ;zigbee.c: 346: data_TX_normal_FIFO[9] = PAN_ID_1[0];
  5467  0016AA  C0E8  F069         	movff	_PAN_ID_1,_data_TX_normal_FIFO+9
  5468                           
  5469                           ; BSR set to: 0
  5470                           ;zigbee.c: 347: data_TX_normal_FIFO[10] = PAN_ID_1[1];
  5471  0016AE  C0E9  F06A         	movff	_PAN_ID_1+1,_data_TX_normal_FIFO+10
  5472                           
  5473                           ; BSR set to: 0
  5474                           ;zigbee.c: 348: data_TX_normal_FIFO[11] = ADDRESS_short_1[0];
  5475  0016B2  C0EA  F06B         	movff	_ADDRESS_short_1,_data_TX_normal_FIFO+11
  5476                           
  5477                           ; BSR set to: 0
  5478                           ;zigbee.c: 349: data_TX_normal_FIFO[12] = ADDRESS_short_1[1];
  5479  0016B6  C0EB  F06C         	movff	_ADDRESS_short_1+1,_data_TX_normal_FIFO+12
  5480                           
  5481                           ; BSR set to: 0
  5482                           ;zigbee.c: 351: for(n=0,ii=13;n<3;n++,ii++){
  5483  0016BA  0E00               	movlw	0
  5484  0016BC  6FC9               	movwf	write_TX_normal_FIFO@n& (0+255),b
  5485                           
  5486                           ; BSR set to: 0
  5487  0016BE  0E0D               	movlw	13
  5488  0016C0  6E1B               	movwf	_ii,c
  5489  0016C2                     i1l3626:
  5490                           
  5491                           ; BSR set to: 0
  5492  0016C2  0E02               	movlw	2
  5493  0016C4  65C9               	cpfsgt	write_TX_normal_FIFO@n& (0+255),b
  5494  0016C6  D001               	goto	i1l492
  5495  0016C8  D015               	goto	i1u127_20
  5496  0016CA                     i1l492:
  5497                           
  5498                           ; BSR set to: 0
  5499                           ;zigbee.c: 352: DATA_TX[n] = data_TX_normal_FIFO[ii];
  5500                           
  5501                           ; BSR set to: 0
  5502  0016CA  501B               	movf	_ii,w,c
  5503  0016CC  0D01               	mullw	1
  5504  0016CE  0E60               	movlw	low _data_TX_normal_FIFO
  5505  0016D0  24F3               	addwf	prodl,w,c
  5506  0016D2  6ED9               	movwf	fsr2l,c
  5507  0016D4  0E00               	movlw	high _data_TX_normal_FIFO
  5508  0016D6  20F4               	addwfc	prodh,w,c
  5509  0016D8  6EDA               	movwf	fsr2h,c
  5510  0016DA  51C9               	movf	write_TX_normal_FIFO@n& (0+255),w,b
  5511  0016DC  0D01               	mullw	1
  5512  0016DE  0EB8               	movlw	low _DATA_TX
  5513  0016E0  24F3               	addwf	prodl,w,c
  5514  0016E2  6EE1               	movwf	fsr1l,c
  5515  0016E4  0E00               	movlw	high _DATA_TX
  5516  0016E6  20F4               	addwfc	prodh,w,c
  5517  0016E8  6EE2               	movwf	fsr1h,c
  5518  0016EA  CFDF FFE7          	movff	indf2,indf1
  5519                           
  5520                           ; BSR set to: 0
  5521  0016EE  2BC9               	incf	write_TX_normal_FIFO@n& (0+255),f,b
  5522                           
  5523                           ; BSR set to: 0
  5524  0016F0  2A1B               	incf	_ii,f,c
  5525  0016F2  D7E7               	goto	i1l3626
  5526  0016F4                     i1u127_20:
  5527                           
  5528                           ; BSR set to: 0
  5529                           ;zigbee.c: 353: }
  5530                           ;zigbee.c: 354: TX_CRC = Xor_check(DATA_TX,3);
  5531                           
  5532                           ; BSR set to: 0
  5533  0016F4  0EB8               	movlw	low _DATA_TX
  5534  0016F6  6FBB               	movwf	Xor_check@data_value& (0+255),b
  5535  0016F8  0E00               	movlw	high _DATA_TX
  5536  0016FA  6FBC               	movwf	(Xor_check@data_value+1)& (0+255),b
  5537  0016FC  0E03               	movlw	3
  5538  0016FE  6FBD               	movwf	Xor_check@length& (0+255),b
  5539  001700  ECE0  F00E         	call	_Xor_check	;wreg free
  5540  001704  C0BB  F09B         	movff	?_Xor_check,_TX_CRC
  5541  001708  C0BC  F09C         	movff	?_Xor_check+1,_TX_CRC+1
  5542                           
  5543                           ;zigbee.c: 355: data_TX_normal_FIFO[3 + 12 + 1] = (TX_CRC & 0x00FF);
  5544  00170C  C09B  F070         	movff	_TX_CRC,_data_TX_normal_FIFO+16
  5545                           
  5546                           ;zigbee.c: 356: data_TX_normal_FIFO[3 + 12 + 2] = ( (TX_CRC & 0xFF00) >> 8 );
  5547  001710  0100               	movlb	0	; () banked
  5548  001712  519C               	movf	(_TX_CRC+1)& (0+255),w,b
  5549  001714  6F71               	movwf	(_data_TX_normal_FIFO+17)& (0+255),b
  5550                           
  5551                           ; BSR set to: 0
  5552                           ;zigbee.c: 359: for(i = 0; i < (HEADER_LENGHT + DATA_LENGHT + 2); i++)
  5553  001716  0E00               	movlw	0
  5554  001718  6FCA               	movwf	write_TX_normal_FIFO@i& (0+255),b
  5555  00171A                     i1l3646:
  5556                           
  5557                           ; BSR set to: 0
  5558  00171A  0E0D               	movlw	low _HEADER_LENGHT
  5559  00171C  6EF6               	movwf	tblptrl,c
  5560  00171E                     	if	1	;There is more than 1 active tblptr byte
  5561  00171E  0E10               	movlw	high _HEADER_LENGHT
  5562  001720  6EF7               	movwf	tblptrh,c
  5563  001722                     	endif
  5564  001722                     	if	1	;There are 3 active tblptr bytes
  5565  001722  0E00               	movlw	low (_HEADER_LENGHT shr (0+16))
  5566  001724  6EF8               	movwf	tblptru,c
  5567  001726                     	endif
  5568  001726  0008               	tblrd		*
  5569  001728  50F5               	movf	tablat,w,c
  5570  00172A  6FC4               	movwf	??_write_TX_normal_FIFO& (0+255),b
  5571  00172C  6BC5               	clrf	(??_write_TX_normal_FIFO+1)& (0+255),b
  5572  00172E  0E0E               	movlw	low _DATA_LENGHT
  5573  001730  6EF6               	movwf	tblptrl,c
  5574  001732                     	if	1	;There is more than 1 active tblptr byte
  5575  001732  0E10               	movlw	high _DATA_LENGHT
  5576  001734  6EF7               	movwf	tblptrh,c
  5577  001736                     	endif
  5578  001736                     	if	1	;There are 3 active tblptr bytes
  5579  001736  0E00               	movlw	low (_DATA_LENGHT shr (0+16))
  5580  001738  6EF8               	movwf	tblptru,c
  5581  00173A                     	endif
  5582  00173A  0008               	tblrd		*
  5583  00173C  50F5               	movf	tablat,w,c
  5584  00173E  27C4               	addwf	??_write_TX_normal_FIFO& (0+255),f,b
  5585  001740  0E00               	movlw	0
  5586  001742  23C5               	addwfc	(??_write_TX_normal_FIFO+1)& (0+255),f,b
  5587  001744  0E02               	movlw	2
  5588  001746  27C4               	addwf	??_write_TX_normal_FIFO& (0+255),f,b
  5589  001748  0E00               	movlw	0
  5590  00174A  23C5               	addwfc	(??_write_TX_normal_FIFO+1)& (0+255),f,b
  5591  00174C  51CA               	movf	write_TX_normal_FIFO@i& (0+255),w,b
  5592  00174E  6FC6               	movwf	(??_write_TX_normal_FIFO+2)& (0+255),b
  5593  001750  6BC7               	clrf	(??_write_TX_normal_FIFO+3)& (0+255),b
  5594  001752  51C4               	movf	??_write_TX_normal_FIFO& (0+255),w,b
  5595  001754  5DC6               	subwf	(??_write_TX_normal_FIFO+2)& (0+255),w,b
  5596  001756  51C7               	movf	(??_write_TX_normal_FIFO+3)& (0+255),w,b
  5597  001758  0A80               	xorlw	128
  5598  00175A  6FC8               	movwf	(??_write_TX_normal_FIFO+4)& (0+255),b
  5599  00175C  51C5               	movf	(??_write_TX_normal_FIFO+1)& (0+255),w,b
  5600  00175E  0A80               	xorlw	128
  5601  001760  59C8               	subwfb	(??_write_TX_normal_FIFO+4)& (0+255),w,b
  5602  001762  B0D8               	btfsc	status,0,c
  5603  001764  D01C               	goto	i1u129_20
  5604                           
  5605                           ; BSR set to: 0
  5606                           ;zigbee.c: 360: {
  5607                           ;zigbee.c: 361: write_ZIGBEE_long(address_TX_normal_FIFO + i, data_TX_normal_FIFO[i]);
  5608                           
  5609                           ; BSR set to: 0
  5610                           
  5611                           ; BSR set to: 0
  5612  001766  51CA               	movf	write_TX_normal_FIFO@i& (0+255),w,b
  5613  001768  259F               	addwf	_address_TX_normal_FIFO& (0+255),w,b
  5614  00176A  6FBD               	movwf	i1write_ZIGBEE_long@address& (0+255),b
  5615  00176C  0E00               	movlw	0
  5616  00176E  21A0               	addwfc	(_address_TX_normal_FIFO+1)& (0+255),w,b
  5617  001770  6FBE               	movwf	(i1write_ZIGBEE_long@address+1)& (0+255),b
  5618  001772  51CA               	movf	write_TX_normal_FIFO@i& (0+255),w,b
  5619  001774  0D01               	mullw	1
  5620  001776  0E60               	movlw	low _data_TX_normal_FIFO
  5621  001778  24F3               	addwf	prodl,w,c
  5622  00177A  6ED9               	movwf	fsr2l,c
  5623  00177C  0E00               	movlw	high _data_TX_normal_FIFO
  5624  00177E  20F4               	addwfc	prodh,w,c
  5625  001780  6EDA               	movwf	fsr2h,c
  5626  001782  50DF               	movf	indf2,w,c
  5627  001784  6FBF               	movwf	i1write_ZIGBEE_long@data_r& (0+255),b
  5628  001786  EC29  F00E         	call	i1_write_ZIGBEE_long	;wreg free
  5629                           
  5630                           ;zigbee.c: 362: Delay_ms(10);
  5631  00178A  0E00               	movlw	0
  5632  00178C  0100               	movlb	0	; () banked
  5633  00178E  6FBC               	movwf	(i1Delay_ms@time+1)& (0+255),b
  5634  001790  0E0A               	movlw	10
  5635  001792  6FBB               	movwf	i1Delay_ms@time& (0+255),b
  5636  001794  ECE1  F010         	call	i1_Delay_ms	;wreg free
  5637  001798  0100               	movlb	0	; () banked
  5638  00179A  2BCA               	incf	write_TX_normal_FIFO@i& (0+255),f,b
  5639  00179C  D7BE               	goto	i1l3646
  5640  00179E                     i1u129_20:
  5641                           
  5642                           ; BSR set to: 0
  5643                           ;zigbee.c: 363: }
  5644                           ;zigbee.c: 364: set_not_ACK();
  5645                           
  5646                           ; BSR set to: 0
  5647  00179E  EC2C  F011         	call	_set_not_ACK	;wreg free
  5648                           
  5649                           ;zigbee.c: 365: set_not_encrypt();
  5650  0017A2  EC21  F011         	call	_set_not_encrypt	;wreg free
  5651                           
  5652                           ;zigbee.c: 366: start_transmit();
  5653  0017A6  EC40  F00F         	call	_start_transmit	;wreg free
  5654  0017AA  0012               	return		;funcret
  5655  0017AC                     __end_of_write_TX_normal_FIFO:
  5656                           	opt stack 0
  5657                           pclatu	equ	0xFFB
  5658                           pclath	equ	0xFFA
  5659                           tblptru	equ	0xFF8
  5660                           tblptrh	equ	0xFF7
  5661                           tblptrl	equ	0xFF6
  5662                           tablat	equ	0xFF5
  5663                           prodh	equ	0xFF4
  5664                           prodl	equ	0xFF3
  5665                           intcon	equ	0xFF2
  5666                           intcon2	equ	0xFF1
  5667                           postinc0	equ	0xFEE
  5668                           fsr0h	equ	0xFEA
  5669                           fsr0l	equ	0xFE9
  5670                           wreg	equ	0xFE8
  5671                           indf1	equ	0xFE7
  5672                           postdec1	equ	0xFE5
  5673                           fsr1h	equ	0xFE2
  5674                           fsr1l	equ	0xFE1
  5675                           bsr	equ	0xFE0
  5676                           indf2	equ	0xFDF
  5677                           fsr2h	equ	0xFDA
  5678                           fsr2l	equ	0xFD9
  5679                           status	equ	0xFD8
  5680                           
  5681 ;; *************** function i1_write_ZIGBEE_long *****************
  5682 ;; Defined at:
  5683 ;;		line 414 in file "zigbee.c"
  5684 ;; Parameters:    Size  Location     Type
  5685 ;;  address         2    2[BANK0 ] unsigned int 
  5686 ;;  data_r          1    4[BANK0 ] unsigned char 
  5687 ;; Auto vars:     Size  Location     Type
  5688 ;;  write_ZIGBEE    1    8[BANK0 ] unsigned char 
  5689 ;;  write_ZIGBEE    1    7[BANK0 ] unsigned char 
  5690 ;; Return value:  Size  Location     Type
  5691 ;;                  1    wreg      void 
  5692 ;; Registers used:
  5693 ;;		wreg, status,2, status,0, cstack
  5694 ;; Tracked objects:
  5695 ;;		On entry : 0/0
  5696 ;;		On exit  : 0/0
  5697 ;;		Unchanged: 0/0
  5698 ;; Data sizes:     COMRAM   BANK0   BANK1   BANK2   BANK3   BANK4   BANK5   BANK6   BANK7   BANK8   BANK9  BANK10  BANK1
      +1  BANK12  BANK13  BANK14  BANK15
  5699 ;;      Params:         0       3       0       0       0       0       0       0       0       0       0       0       
      +0       0       0       0       0
  5700 ;;      Locals:         0       2       0       0       0       0       0       0       0       0       0       0       
      +0       0       0       0       0
  5701 ;;      Temps:          0       2       0       0       0       0       0       0       0       0       0       0       
      +0       0       0       0       0
  5702 ;;      Totals:         0       7       0       0       0       0       0       0       0       0       0       0       
      +0       0       0       0       0
  5703 ;;Total ram usage:        7 bytes
  5704 ;; Hardware stack levels used:    1
  5705 ;; Hardware stack levels required when called:    5
  5706 ;; This function calls:
  5707 ;;		i1_SPI_Write
  5708 ;; This function is called by:
  5709 ;;		_write_TX_normal_FIFO
  5710 ;; This function uses a non-reentrant model
  5711 ;;
  5712                           
  5713                           	psect	text38
  5714  001C52                     __ptext38:
  5715                           	opt stack 0
  5716  001C52                     i1_write_ZIGBEE_long:
  5717                           	opt stack 18
  5718                           
  5719                           ;zigbee.c: 415: unsigned char address_high = 0, address_low = 0;
  5720                           
  5721                           ;incstack = 0
  5722  001C52  0E00               	movlw	0
  5723  001C54  0100               	movlb	0	; () banked
  5724  001C56  6FC2               	movwf	i1write_ZIGBEE_long@address_high& (0+255),b
  5725  001C58  0E00               	movlw	0
  5726  001C5A  6FC3               	movwf	i1write_ZIGBEE_long@address_low& (0+255),b
  5727                           
  5728                           ; BSR set to: 0
  5729                           ;zigbee.c: 417: PORTCbits.RC0=0;
  5730  001C5C  9082               	bcf	3970,0,c	;volatile
  5731                           
  5732                           ; BSR set to: 0
  5733                           ;zigbee.c: 418: address_high = (((unsigned char)(address >> 3)) & 0b01111111) | 0x80;
  5734  001C5E  C0BD  F0C0         	movff	i1write_ZIGBEE_long@address,??i1_write_ZIGBEE_long
  5735  001C62  C0BE  F0C1         	movff	i1write_ZIGBEE_long@address+1,??i1_write_ZIGBEE_long+1
  5736  001C66  90D8               	bcf	status,0,c
  5737  001C68  33C1               	rrcf	(??i1_write_ZIGBEE_long+1)& (0+255),f,b
  5738  001C6A  33C0               	rrcf	??i1_write_ZIGBEE_long& (0+255),f,b
  5739  001C6C  90D8               	bcf	status,0,c
  5740  001C6E  33C1               	rrcf	(??i1_write_ZIGBEE_long+1)& (0+255),f,b
  5741  001C70  33C0               	rrcf	??i1_write_ZIGBEE_long& (0+255),f,b
  5742  001C72  90D8               	bcf	status,0,c
  5743  001C74  33C1               	rrcf	(??i1_write_ZIGBEE_long+1)& (0+255),f,b
  5744  001C76  33C0               	rrcf	??i1_write_ZIGBEE_long& (0+255),f,b
  5745  001C78  51C0               	movf	??i1_write_ZIGBEE_long& (0+255),w,b
  5746  001C7A  0B7F               	andlw	127
  5747  001C7C  0980               	iorlw	128
  5748  001C7E  6FC2               	movwf	i1write_ZIGBEE_long@address_high& (0+255),b
  5749                           
  5750                           ; BSR set to: 0
  5751                           ;zigbee.c: 419: address_low = (((unsigned char)(address << 5)) & 0b11100000) | 0x10;
  5752  001C80  39BD               	swapf	i1write_ZIGBEE_long@address& (0+255),w,b
  5753  001C82  46E8               	rlncf	wreg,f,c
  5754  001C84  0BE0               	andlw	224
  5755  001C86  0BE0               	andlw	224
  5756  001C88  0910               	iorlw	16
  5757  001C8A  6FC3               	movwf	i1write_ZIGBEE_long@address_low& (0+255),b
  5758                           
  5759                           ; BSR set to: 0
  5760                           ;zigbee.c: 420: SPI_Write(address_high);
  5761  001C8C  51C2               	movf	i1write_ZIGBEE_long@address_high& (0+255),w,b
  5762  001C8E  EC66  F011         	call	i1_SPI_Write
  5763                           
  5764                           ;zigbee.c: 421: SPI_Write(address_low);
  5765  001C92  0100               	movlb	0	; () banked
  5766  001C94  51C3               	movf	i1write_ZIGBEE_long@address_low& (0+255),w,b
  5767  001C96  EC66  F011         	call	i1_SPI_Write
  5768                           
  5769                           ;zigbee.c: 422: SPI_Write(data_r);
  5770  001C9A  0100               	movlb	0	; () banked
  5771  001C9C  51BF               	movf	i1write_ZIGBEE_long@data_r& (0+255),w,b
  5772  001C9E  EC66  F011         	call	i1_SPI_Write
  5773                           
  5774                           ;zigbee.c: 423: PORTCbits.RC0=1;
  5775  001CA2  8082               	bsf	3970,0,c	;volatile
  5776  001CA4  0012               	return		;funcret
  5777  001CA6                     __end_ofi1_write_ZIGBEE_long:
  5778                           	opt stack 0
  5779                           pclatu	equ	0xFFB
  5780                           pclath	equ	0xFFA
  5781                           tblptru	equ	0xFF8
  5782                           tblptrh	equ	0xFF7
  5783                           tblptrl	equ	0xFF6
  5784                           tablat	equ	0xFF5
  5785                           prodh	equ	0xFF4
  5786                           prodl	equ	0xFF3
  5787                           intcon	equ	0xFF2
  5788                           intcon2	equ	0xFF1
  5789                           postinc0	equ	0xFEE
  5790                           fsr0h	equ	0xFEA
  5791                           fsr0l	equ	0xFE9
  5792                           wreg	equ	0xFE8
  5793                           indf1	equ	0xFE7
  5794                           postdec1	equ	0xFE5
  5795                           fsr1h	equ	0xFE2
  5796                           fsr1l	equ	0xFE1
  5797                           bsr	equ	0xFE0
  5798                           indf2	equ	0xFDF
  5799                           fsr2h	equ	0xFDA
  5800                           fsr2l	equ	0xFD9
  5801                           status	equ	0xFD8
  5802                           
  5803 ;; *************** function i1_Delay_ms *****************
  5804 ;; Defined at:
  5805 ;;		line 475 in file "zigbee.c"
  5806 ;; Parameters:    Size  Location     Type
  5807 ;;  time            2    0[BANK0 ] unsigned int 
  5808 ;; Auto vars:     Size  Location     Type
  5809 ;;  Delay_ms        2    2[BANK0 ] unsigned int 
  5810 ;;  Delay_ms        2    0        unsigned int 
  5811 ;; Return value:  Size  Location     Type
  5812 ;;                  1    wreg      void 
  5813 ;; Registers used:
  5814 ;;		wreg, status,2, status,0
  5815 ;; Tracked objects:
  5816 ;;		On entry : 0/0
  5817 ;;		On exit  : 0/0
  5818 ;;		Unchanged: 0/0
  5819 ;; Data sizes:     COMRAM   BANK0   BANK1   BANK2   BANK3   BANK4   BANK5   BANK6   BANK7   BANK8   BANK9  BANK10  BANK1
      +1  BANK12  BANK13  BANK14  BANK15
  5820 ;;      Params:         0       2       0       0       0       0       0       0       0       0       0       0       
      +0       0       0       0       0
  5821 ;;      Locals:         0       2       0       0       0       0       0       0       0       0       0       0       
      +0       0       0       0       0
  5822 ;;      Temps:          0       0       0       0       0       0       0       0       0       0       0       0       
      +0       0       0       0       0
  5823 ;;      Totals:         0       4       0       0       0       0       0       0       0       0       0       0       
      +0       0       0       0       0
  5824 ;;Total ram usage:        4 bytes
  5825 ;; Hardware stack levels used:    1
  5826 ;; Hardware stack levels required when called:    4
  5827 ;; This function calls:
  5828 ;;		Nothing
  5829 ;; This function is called by:
  5830 ;;		_write_TX_normal_FIFO
  5831 ;;		_INTERRUPT_InterruptManagerLow
  5832 ;; This function uses a non-reentrant model
  5833 ;;
  5834                           
  5835                           	psect	text39
  5836  0021C2                     __ptext39:
  5837                           	opt stack 0
  5838  0021C2                     i1_Delay_ms:
  5839                           	opt stack 20
  5840                           
  5841                           ;zigbee.c: 476: unsigned int x,y=0;
  5842                           
  5843                           ;incstack = 0
  5844  0021C2  0E00               	movlw	0
  5845  0021C4  0100               	movlb	0	; () banked
  5846  0021C6  6FBE               	movwf	(i1Delay_ms@y+1)& (0+255),b
  5847  0021C8  0E00               	movlw	0
  5848  0021CA  6FBD               	movwf	i1Delay_ms@y& (0+255),b
  5849  0021CC                     
  5850                           ; BSR set to: 0
  5851                           
  5852                           ; BSR set to: 0
  5853                           
  5854                           ; BSR set to: 0
  5855  0021CC  4BBB               	infsnz	i1Delay_ms@time& (0+255),f,b
  5856  0021CE  2BBC               	incf	(i1Delay_ms@time+1)& (0+255),f,b
  5857  0021D0  0E10               	movlw	16
  5858  0021D2  5DBB               	subwf	i1Delay_ms@time& (0+255),w,b
  5859  0021D4  0E27               	movlw	39
  5860  0021D6  59BC               	subwfb	(i1Delay_ms@time+1)& (0+255),w,b
  5861  0021D8  B0D8               	btfsc	status,0,c
  5862  0021DA  0012               	return	
  5863  0021DC  D7F7               	goto	i1l545
  5864  0021DE                     __end_ofi1_Delay_ms:
  5865                           	opt stack 0
  5866                           pclatu	equ	0xFFB
  5867                           pclath	equ	0xFFA
  5868                           tblptru	equ	0xFF8
  5869                           tblptrh	equ	0xFF7
  5870                           tblptrl	equ	0xFF6
  5871                           tablat	equ	0xFF5
  5872                           prodh	equ	0xFF4
  5873                           prodl	equ	0xFF3
  5874                           intcon	equ	0xFF2
  5875                           intcon2	equ	0xFF1
  5876                           postinc0	equ	0xFEE
  5877                           fsr0h	equ	0xFEA
  5878                           fsr0l	equ	0xFE9
  5879                           wreg	equ	0xFE8
  5880                           indf1	equ	0xFE7
  5881                           postdec1	equ	0xFE5
  5882                           fsr1h	equ	0xFE2
  5883                           fsr1l	equ	0xFE1
  5884                           bsr	equ	0xFE0
  5885                           indf2	equ	0xFDF
  5886                           fsr2h	equ	0xFDA
  5887                           fsr2l	equ	0xFD9
  5888                           status	equ	0xFD8
  5889                           
  5890 ;; *************** function _start_transmit *****************
  5891 ;; Defined at:
  5892 ;;		line 382 in file "zigbee.c"
  5893 ;; Parameters:    Size  Location     Type
  5894 ;;		None
  5895 ;; Auto vars:     Size  Location     Type
  5896 ;;		None
  5897 ;; Return value:  Size  Location     Type
  5898 ;;                  1    wreg      void 
  5899 ;; Registers used:
  5900 ;;		wreg, status,2, status,0, cstack
  5901 ;; Tracked objects:
  5902 ;;		On entry : 0/0
  5903 ;;		On exit  : 0/0
  5904 ;;		Unchanged: 0/0
  5905 ;; Data sizes:     COMRAM   BANK0   BANK1   BANK2   BANK3   BANK4   BANK5   BANK6   BANK7   BANK8   BANK9  BANK10  BANK1
      +1  BANK12  BANK13  BANK14  BANK15
  5906 ;;      Params:         0       0       0       0       0       0       0       0       0       0       0       0       
      +0       0       0       0       0
  5907 ;;      Locals:         0       0       0       0       0       0       0       0       0       0       0       0       
      +0       0       0       0       0
  5908 ;;      Temps:          0       0       0       0       0       0       0       0       0       0       0       0       
      +0       0       0       0       0
  5909 ;;      Totals:         0       0       0       0       0       0       0       0       0       0       0       0       
      +0       0       0       0       0
  5910 ;;Total ram usage:        0 bytes
  5911 ;; Hardware stack levels used:    1
  5912 ;; Hardware stack levels required when called:    6
  5913 ;; This function calls:
  5914 ;;		_read_ZIGBEE_short
  5915 ;;		i1_write_ZIGBEE_short
  5916 ;; This function is called by:
  5917 ;;		_write_TX_normal_FIFO
  5918 ;; This function uses a non-reentrant model
  5919 ;;
  5920                           
  5921                           	psect	text40
  5922  001E80                     __ptext40:
  5923                           	opt stack 0
  5924  001E80                     _start_transmit:
  5925                           	opt stack 17
  5926                           
  5927                           ;zigbee.c: 384: CHECK=0;
  5928                           
  5929                           ; BSR set to: 0
  5930                           ;incstack = 0
  5931  001E80  0E00               	movlw	0
  5932  001E82  6E27               	movwf	_CHECK,c
  5933                           
  5934                           ;zigbee.c: 385: CHECK = CHECK | 0x01;
  5935  001E84  5027               	movf	_CHECK,w,c
  5936  001E86  0901               	iorlw	1
  5937  001E88  6E27               	movwf	_CHECK,c
  5938                           
  5939                           ;zigbee.c: 386: write_ZIGBEE_short(0x1B,CHECK);
  5940  001E8A  C027  F0BD         	movff	_CHECK,i1write_ZIGBEE_short@data_r
  5941  001E8E  0E1B               	movlw	27
  5942  001E90  EC4F  F010         	call	i1_write_ZIGBEE_short
  5943                           
  5944                           ;zigbee.c: 388: CHECK=0;
  5945  001E94  0E00               	movlw	0
  5946  001E96  6E27               	movwf	_CHECK,c
  5947  001E98  0E31               	movlw	49
  5948  001E9A  EC05  F010         	call	_read_ZIGBEE_short
  5949  001E9E  06E8               	decf	wreg,f,c
  5950  001EA0  A4D8               	btfss	status,2,c
  5951  001EA2  D7FA               	goto	i1l506
  5952                           
  5953                           ;zigbee.c: 390: CHECK = read_ZIGBEE_short(0x31);
  5954  001EA4  0E31               	movlw	49
  5955  001EA6  EC05  F010         	call	_read_ZIGBEE_short
  5956  001EAA  6E27               	movwf	_CHECK,c
  5957                           
  5958                           ;zigbee.c: 391: __nop();
  5959  001EAC  F000               	nop	
  5960                           
  5961                           ;zigbee.c: 392: CHECK = 0;
  5962  001EAE  0E00               	movlw	0
  5963  001EB0  6E27               	movwf	_CHECK,c
  5964                           
  5965                           ;zigbee.c: 393: CHECK = read_ZIGBEE_short(0x24);
  5966  001EB2  0E24               	movlw	36
  5967  001EB4  EC05  F010         	call	_read_ZIGBEE_short
  5968  001EB8  6E27               	movwf	_CHECK,c
  5969                           
  5970                           ;zigbee.c: 394: __nop();
  5971  001EBA  F000               	nop	
  5972  001EBC  0012               	return		;funcret
  5973  001EBE                     __end_of_start_transmit:
  5974                           	opt stack 0
  5975                           pclatu	equ	0xFFB
  5976                           pclath	equ	0xFFA
  5977                           tblptru	equ	0xFF8
  5978                           tblptrh	equ	0xFF7
  5979                           tblptrl	equ	0xFF6
  5980                           tablat	equ	0xFF5
  5981                           prodh	equ	0xFF4
  5982                           prodl	equ	0xFF3
  5983                           intcon	equ	0xFF2
  5984                           intcon2	equ	0xFF1
  5985                           postinc0	equ	0xFEE
  5986                           fsr0h	equ	0xFEA
  5987                           fsr0l	equ	0xFE9
  5988                           wreg	equ	0xFE8
  5989                           indf1	equ	0xFE7
  5990                           postdec1	equ	0xFE5
  5991                           fsr1h	equ	0xFE2
  5992                           fsr1l	equ	0xFE1
  5993                           bsr	equ	0xFE0
  5994                           indf2	equ	0xFDF
  5995                           fsr2h	equ	0xFDA
  5996                           fsr2l	equ	0xFD9
  5997                           status	equ	0xFD8
  5998                           
  5999 ;; *************** function _read_ZIGBEE_short *****************
  6000 ;; Defined at:
  6001 ;;		line 403 in file "zigbee.c"
  6002 ;; Parameters:    Size  Location     Type
  6003 ;;  address         1    wreg     unsigned char 
  6004 ;; Auto vars:     Size  Location     Type
  6005 ;;  address         1    3[BANK0 ] unsigned char 
  6006 ;;  data_r          1    2[BANK0 ] unsigned char 
  6007 ;; Return value:  Size  Location     Type
  6008 ;;                  1    wreg      unsigned char 
  6009 ;; Registers used:
  6010 ;;		wreg, status,2, status,0, cstack
  6011 ;; Tracked objects:
  6012 ;;		On entry : 0/0
  6013 ;;		On exit  : 0/0
  6014 ;;		Unchanged: 0/0
  6015 ;; Data sizes:     COMRAM   BANK0   BANK1   BANK2   BANK3   BANK4   BANK5   BANK6   BANK7   BANK8   BANK9  BANK10  BANK1
      +1  BANK12  BANK13  BANK14  BANK15
  6016 ;;      Params:         0       0       0       0       0       0       0       0       0       0       0       0       
      +0       0       0       0       0
  6017 ;;      Locals:         0       2       0       0       0       0       0       0       0       0       0       0       
      +0       0       0       0       0
  6018 ;;      Temps:          0       0       0       0       0       0       0       0       0       0       0       0       
      +0       0       0       0       0
  6019 ;;      Totals:         0       2       0       0       0       0       0       0       0       0       0       0       
      +0       0       0       0       0
  6020 ;;Total ram usage:        2 bytes
  6021 ;; Hardware stack levels used:    1
  6022 ;; Hardware stack levels required when called:    5
  6023 ;; This function calls:
  6024 ;;		_SPI_Read
  6025 ;;		i1_SPI_Write
  6026 ;; This function is called by:
  6027 ;;		_start_transmit
  6028 ;; This function uses a non-reentrant model
  6029 ;;
  6030                           
  6031                           	psect	text41
  6032  00200A                     __ptext41:
  6033                           	opt stack 0
  6034  00200A                     _read_ZIGBEE_short:
  6035                           	opt stack 17
  6036                           
  6037                           ;incstack = 0
  6038                           ;read_ZIGBEE_short@address stored from wreg
  6039  00200A  0100               	movlb	0	; () banked
  6040  00200C  6FBE               	movwf	read_ZIGBEE_short@address& (0+255),b
  6041                           
  6042                           ;zigbee.c: 404: unsigned char data_r = 0;
  6043  00200E  0E00               	movlw	0
  6044  002010  0100               	movlb	0	; () banked
  6045  002012  6FBD               	movwf	read_ZIGBEE_short@data_r& (0+255),b
  6046                           
  6047                           ; BSR set to: 0
  6048                           ;zigbee.c: 406: PORTCbits.RC0=0;
  6049  002014  9082               	bcf	3970,0,c	;volatile
  6050                           
  6051                           ; BSR set to: 0
  6052                           ;zigbee.c: 407: address = (address << 1) & 0b01111110;
  6053  002016  51BE               	movf	read_ZIGBEE_short@address& (0+255),w,b
  6054  002018  25BE               	addwf	read_ZIGBEE_short@address& (0+255),w,b
  6055  00201A  0B7E               	andlw	126
  6056  00201C  6FBE               	movwf	read_ZIGBEE_short@address& (0+255),b
  6057                           
  6058                           ; BSR set to: 0
  6059                           ;zigbee.c: 408: SPI_Write(address);
  6060  00201E  51BE               	movf	read_ZIGBEE_short@address& (0+255),w,b
  6061  002020  EC66  F011         	call	i1_SPI_Write
  6062                           
  6063                           ;zigbee.c: 409: data_r = SPI_Read();
  6064  002024  EC5D  F011         	call	_SPI_Read	;wreg free
  6065  002028  0100               	movlb	0	; () banked
  6066  00202A  6FBD               	movwf	read_ZIGBEE_short@data_r& (0+255),b
  6067                           
  6068                           ; BSR set to: 0
  6069                           ;zigbee.c: 410: PORTCbits.RC0=1;
  6070  00202C  8082               	bsf	3970,0,c	;volatile
  6071                           
  6072                           ; BSR set to: 0
  6073                           ;zigbee.c: 412: return data_r;
  6074  00202E  51BD               	movf	read_ZIGBEE_short@data_r& (0+255),w,b
  6075  002030  0012               	return	
  6076  002032                     __end_of_read_ZIGBEE_short:
  6077                           	opt stack 0
  6078                           pclatu	equ	0xFFB
  6079                           pclath	equ	0xFFA
  6080                           tblptru	equ	0xFF8
  6081                           tblptrh	equ	0xFF7
  6082                           tblptrl	equ	0xFF6
  6083                           tablat	equ	0xFF5
  6084                           prodh	equ	0xFF4
  6085                           prodl	equ	0xFF3
  6086                           intcon	equ	0xFF2
  6087                           intcon2	equ	0xFF1
  6088                           postinc0	equ	0xFEE
  6089                           fsr0h	equ	0xFEA
  6090                           fsr0l	equ	0xFE9
  6091                           wreg	equ	0xFE8
  6092                           indf1	equ	0xFE7
  6093                           postdec1	equ	0xFE5
  6094                           fsr1h	equ	0xFE2
  6095                           fsr1l	equ	0xFE1
  6096                           bsr	equ	0xFE0
  6097                           indf2	equ	0xFDF
  6098                           fsr2h	equ	0xFDA
  6099                           fsr2l	equ	0xFD9
  6100                           status	equ	0xFD8
  6101                           
  6102 ;; *************** function _SPI_Read *****************
  6103 ;; Defined at:
  6104 ;;		line 463 in file "zigbee.c"
  6105 ;; Parameters:    Size  Location     Type
  6106 ;;		None
  6107 ;; Auto vars:     Size  Location     Type
  6108 ;;  TempVar         1    0[BANK0 ] unsigned char 
  6109 ;; Return value:  Size  Location     Type
  6110 ;;                  1    wreg      unsigned char 
  6111 ;; Registers used:
  6112 ;;		wreg, status,2
  6113 ;; Tracked objects:
  6114 ;;		On entry : 0/0
  6115 ;;		On exit  : 0/0
  6116 ;;		Unchanged: 0/0
  6117 ;; Data sizes:     COMRAM   BANK0   BANK1   BANK2   BANK3   BANK4   BANK5   BANK6   BANK7   BANK8   BANK9  BANK10  BANK1
      +1  BANK12  BANK13  BANK14  BANK15
  6118 ;;      Params:         0       0       0       0       0       0       0       0       0       0       0       0       
      +0       0       0       0       0
  6119 ;;      Locals:         0       1       0       0       0       0       0       0       0       0       0       0       
      +0       0       0       0       0
  6120 ;;      Temps:          0       0       0       0       0       0       0       0       0       0       0       0       
      +0       0       0       0       0
  6121 ;;      Totals:         0       1       0       0       0       0       0       0       0       0       0       0       
      +0       0       0       0       0
  6122 ;;Total ram usage:        1 bytes
  6123 ;; Hardware stack levels used:    1
  6124 ;; Hardware stack levels required when called:    4
  6125 ;; This function calls:
  6126 ;;		Nothing
  6127 ;; This function is called by:
  6128 ;;		_read_ZIGBEE_short
  6129 ;; This function uses a non-reentrant model
  6130 ;;
  6131                           
  6132                           	psect	text42
  6133  0022BA                     __ptext42:
  6134                           	opt stack 0
  6135  0022BA                     _SPI_Read:
  6136                           	opt stack 17
  6137                           
  6138                           ;zigbee.c: 464: unsigned char TempVar;
  6139                           ;zigbee.c: 465: SSP1BUF = 0xff;
  6140                           
  6141                           ; BSR set to: 0
  6142                           ;incstack = 0
  6143  0022BA  68C9               	setf	4041,c	;volatile
  6144  0022BC  A0C7               	btfss	4039,0,c	;volatile
  6145  0022BE  D7FE               	goto	i1l533
  6146                           
  6147                           ;zigbee.c: 467: TempVar = SSP1BUF;
  6148  0022C0  CFC9 F0BB          	movff	4041,SPI_Read@TempVar	;volatile
  6149                           
  6150                           ;zigbee.c: 468: PIR1bits.SSP1IF = 0;
  6151  0022C4  969E               	bcf	3998,3,c	;volatile
  6152                           
  6153                           ;zigbee.c: 469: return ( TempVar );
  6154  0022C6  0100               	movlb	0	; () banked
  6155  0022C8  51BB               	movf	SPI_Read@TempVar& (0+255),w,b
  6156  0022CA  0012               	return	
  6157  0022CC                     __end_of_SPI_Read:
  6158                           	opt stack 0
  6159                           pclatu	equ	0xFFB
  6160                           pclath	equ	0xFFA
  6161                           tblptru	equ	0xFF8
  6162                           tblptrh	equ	0xFF7
  6163                           tblptrl	equ	0xFF6
  6164                           tablat	equ	0xFF5
  6165                           prodh	equ	0xFF4
  6166                           prodl	equ	0xFF3
  6167                           intcon	equ	0xFF2
  6168                           intcon2	equ	0xFF1
  6169                           postinc0	equ	0xFEE
  6170                           fsr0h	equ	0xFEA
  6171                           fsr0l	equ	0xFE9
  6172                           wreg	equ	0xFE8
  6173                           indf1	equ	0xFE7
  6174                           postdec1	equ	0xFE5
  6175                           fsr1h	equ	0xFE2
  6176                           fsr1l	equ	0xFE1
  6177                           bsr	equ	0xFE0
  6178                           indf2	equ	0xFDF
  6179                           fsr2h	equ	0xFDA
  6180                           fsr2l	equ	0xFD9
  6181                           status	equ	0xFD8
  6182                           
  6183 ;; *************** function _set_not_encrypt *****************
  6184 ;; Defined at:
  6185 ;;		line 375 in file "zigbee.c"
  6186 ;; Parameters:    Size  Location     Type
  6187 ;;		None
  6188 ;; Auto vars:     Size  Location     Type
  6189 ;;  temp            1    4[BANK0 ] unsigned char 
  6190 ;; Return value:  Size  Location     Type
  6191 ;;                  1    wreg      void 
  6192 ;; Registers used:
  6193 ;;		wreg, status,2, status,0, cstack
  6194 ;; Tracked objects:
  6195 ;;		On entry : 0/0
  6196 ;;		On exit  : 0/0
  6197 ;;		Unchanged: 0/0
  6198 ;; Data sizes:     COMRAM   BANK0   BANK1   BANK2   BANK3   BANK4   BANK5   BANK6   BANK7   BANK8   BANK9  BANK10  BANK1
      +1  BANK12  BANK13  BANK14  BANK15
  6199 ;;      Params:         0       0       0       0       0       0       0       0       0       0       0       0       
      +0       0       0       0       0
  6200 ;;      Locals:         0       1       0       0       0       0       0       0       0       0       0       0       
      +0       0       0       0       0
  6201 ;;      Temps:          0       0       0       0       0       0       0       0       0       0       0       0       
      +0       0       0       0       0
  6202 ;;      Totals:         0       1       0       0       0       0       0       0       0       0       0       0       
      +0       0       0       0       0
  6203 ;;Total ram usage:        1 bytes
  6204 ;; Hardware stack levels used:    1
  6205 ;; Hardware stack levels required when called:    6
  6206 ;; This function calls:
  6207 ;;		i1_write_ZIGBEE_short
  6208 ;; This function is called by:
  6209 ;;		_write_TX_normal_FIFO
  6210 ;; This function uses a non-reentrant model
  6211 ;;
  6212                           
  6213                           	psect	text43
  6214  002242                     __ptext43:
  6215                           	opt stack 0
  6216  002242                     _set_not_encrypt:
  6217                           	opt stack 17
  6218                           
  6219                           ;zigbee.c: 377: unsigned char temp = 0;
  6220                           
  6221                           ; BSR set to: 0
  6222                           ;incstack = 0
  6223  002242  0E00               	movlw	0
  6224  002244  0100               	movlb	0	; () banked
  6225  002246  6FBF               	movwf	set_not_encrypt@temp& (0+255),b
  6226                           
  6227                           ;zigbee.c: 378: temp = temp & (!0x02);
  6228  002248  0E00               	movlw	0
  6229  00224A  6FBF               	movwf	set_not_encrypt@temp& (0+255),b
  6230                           
  6231                           ; BSR set to: 0
  6232                           ;zigbee.c: 379: write_ZIGBEE_short(0x1B, temp);
  6233  00224C  C0BF  F0BD         	movff	set_not_encrypt@temp,i1write_ZIGBEE_short@data_r
  6234  002250  0E1B               	movlw	27
  6235  002252  EC4F  F010         	call	i1_write_ZIGBEE_short
  6236  002256  0012               	return		;funcret
  6237  002258                     __end_of_set_not_encrypt:
  6238                           	opt stack 0
  6239                           pclatu	equ	0xFFB
  6240                           pclath	equ	0xFFA
  6241                           tblptru	equ	0xFF8
  6242                           tblptrh	equ	0xFF7
  6243                           tblptrl	equ	0xFF6
  6244                           tablat	equ	0xFF5
  6245                           prodh	equ	0xFF4
  6246                           prodl	equ	0xFF3
  6247                           intcon	equ	0xFF2
  6248                           intcon2	equ	0xFF1
  6249                           postinc0	equ	0xFEE
  6250                           fsr0h	equ	0xFEA
  6251                           fsr0l	equ	0xFE9
  6252                           wreg	equ	0xFE8
  6253                           indf1	equ	0xFE7
  6254                           postdec1	equ	0xFE5
  6255                           fsr1h	equ	0xFE2
  6256                           fsr1l	equ	0xFE1
  6257                           bsr	equ	0xFE0
  6258                           indf2	equ	0xFDF
  6259                           fsr2h	equ	0xFDA
  6260                           fsr2l	equ	0xFD9
  6261                           status	equ	0xFD8
  6262                           
  6263 ;; *************** function _set_not_ACK *****************
  6264 ;; Defined at:
  6265 ;;		line 369 in file "zigbee.c"
  6266 ;; Parameters:    Size  Location     Type
  6267 ;;		None
  6268 ;; Auto vars:     Size  Location     Type
  6269 ;;  temp            1    4[BANK0 ] unsigned char 
  6270 ;; Return value:  Size  Location     Type
  6271 ;;                  1    wreg      void 
  6272 ;; Registers used:
  6273 ;;		wreg, status,2, status,0, cstack
  6274 ;; Tracked objects:
  6275 ;;		On entry : 0/0
  6276 ;;		On exit  : 0/0
  6277 ;;		Unchanged: 0/0
  6278 ;; Data sizes:     COMRAM   BANK0   BANK1   BANK2   BANK3   BANK4   BANK5   BANK6   BANK7   BANK8   BANK9  BANK10  BANK1
      +1  BANK12  BANK13  BANK14  BANK15
  6279 ;;      Params:         0       0       0       0       0       0       0       0       0       0       0       0       
      +0       0       0       0       0
  6280 ;;      Locals:         0       1       0       0       0       0       0       0       0       0       0       0       
      +0       0       0       0       0
  6281 ;;      Temps:          0       0       0       0       0       0       0       0       0       0       0       0       
      +0       0       0       0       0
  6282 ;;      Totals:         0       1       0       0       0       0       0       0       0       0       0       0       
      +0       0       0       0       0
  6283 ;;Total ram usage:        1 bytes
  6284 ;; Hardware stack levels used:    1
  6285 ;; Hardware stack levels required when called:    6
  6286 ;; This function calls:
  6287 ;;		i1_write_ZIGBEE_short
  6288 ;; This function is called by:
  6289 ;;		_write_TX_normal_FIFO
  6290 ;; This function uses a non-reentrant model
  6291 ;;
  6292                           
  6293                           	psect	text44
  6294  002258                     __ptext44:
  6295                           	opt stack 0
  6296  002258                     _set_not_ACK:
  6297                           	opt stack 17
  6298                           
  6299                           ;zigbee.c: 371: unsigned char temp = 0;
  6300                           
  6301                           ;incstack = 0
  6302  002258  0E00               	movlw	0
  6303  00225A  0100               	movlb	0	; () banked
  6304  00225C  6FBF               	movwf	set_not_ACK@temp& (0+255),b
  6305                           
  6306                           ;zigbee.c: 372: temp = temp & (!0x04);
  6307  00225E  0E00               	movlw	0
  6308  002260  6FBF               	movwf	set_not_ACK@temp& (0+255),b
  6309                           
  6310                           ; BSR set to: 0
  6311                           ;zigbee.c: 373: write_ZIGBEE_short(0x1B, temp);
  6312  002262  C0BF  F0BD         	movff	set_not_ACK@temp,i1write_ZIGBEE_short@data_r
  6313  002266  0E1B               	movlw	27
  6314  002268  EC4F  F010         	call	i1_write_ZIGBEE_short
  6315  00226C  0012               	return		;funcret
  6316  00226E                     __end_of_set_not_ACK:
  6317                           	opt stack 0
  6318                           pclatu	equ	0xFFB
  6319                           pclath	equ	0xFFA
  6320                           tblptru	equ	0xFF8
  6321                           tblptrh	equ	0xFF7
  6322                           tblptrl	equ	0xFF6
  6323                           tablat	equ	0xFF5
  6324                           prodh	equ	0xFF4
  6325                           prodl	equ	0xFF3
  6326                           intcon	equ	0xFF2
  6327                           intcon2	equ	0xFF1
  6328                           postinc0	equ	0xFEE
  6329                           fsr0h	equ	0xFEA
  6330                           fsr0l	equ	0xFE9
  6331                           wreg	equ	0xFE8
  6332                           indf1	equ	0xFE7
  6333                           postdec1	equ	0xFE5
  6334                           fsr1h	equ	0xFE2
  6335                           fsr1l	equ	0xFE1
  6336                           bsr	equ	0xFE0
  6337                           indf2	equ	0xFDF
  6338                           fsr2h	equ	0xFDA
  6339                           fsr2l	equ	0xFD9
  6340                           status	equ	0xFD8
  6341                           
  6342 ;; *************** function i1_write_ZIGBEE_short *****************
  6343 ;; Defined at:
  6344 ;;		line 396 in file "zigbee.c"
  6345 ;; Parameters:    Size  Location     Type
  6346 ;;  address         1    wreg     unsigned char 
  6347 ;;  data_r          1    2[BANK0 ] unsigned char 
  6348 ;; Auto vars:     Size  Location     Type
  6349 ;;  address         1    3[BANK0 ] unsigned char 
  6350 ;; Return value:  Size  Location     Type
  6351 ;;                  1    wreg      void 
  6352 ;; Registers used:
  6353 ;;		wreg, status,2, status,0, cstack
  6354 ;; Tracked objects:
  6355 ;;		On entry : 0/0
  6356 ;;		On exit  : 0/0
  6357 ;;		Unchanged: 0/0
  6358 ;; Data sizes:     COMRAM   BANK0   BANK1   BANK2   BANK3   BANK4   BANK5   BANK6   BANK7   BANK8   BANK9  BANK10  BANK1
      +1  BANK12  BANK13  BANK14  BANK15
  6359 ;;      Params:         0       1       0       0       0       0       0       0       0       0       0       0       
      +0       0       0       0       0
  6360 ;;      Locals:         0       1       0       0       0       0       0       0       0       0       0       0       
      +0       0       0       0       0
  6361 ;;      Temps:          0       0       0       0       0       0       0       0       0       0       0       0       
      +0       0       0       0       0
  6362 ;;      Totals:         0       2       0       0       0       0       0       0       0       0       0       0       
      +0       0       0       0       0
  6363 ;;Total ram usage:        2 bytes
  6364 ;; Hardware stack levels used:    1
  6365 ;; Hardware stack levels required when called:    5
  6366 ;; This function calls:
  6367 ;;		i1_SPI_Write
  6368 ;; This function is called by:
  6369 ;;		_set_not_ACK
  6370 ;;		_set_not_encrypt
  6371 ;;		_start_transmit
  6372 ;; This function uses a non-reentrant model
  6373 ;;
  6374                           
  6375                           	psect	text45
  6376  00209E                     __ptext45:
  6377                           	opt stack 0
  6378  00209E                     i1_write_ZIGBEE_short:
  6379                           	opt stack 17
  6380                           
  6381                           ;incstack = 0
  6382                           ;i1write_ZIGBEE_short@address stored from wreg
  6383  00209E  0100               	movlb	0	; () banked
  6384  0020A0  6FBE               	movwf	i1write_ZIGBEE_short@address& (0+255),b
  6385                           
  6386                           ;zigbee.c: 397: PORTCbits.RC0=0;
  6387  0020A2  9082               	bcf	3970,0,c	;volatile
  6388                           
  6389                           ;zigbee.c: 398: address = ((address << 1) & 0b01111111) | 0x01;
  6390  0020A4  0100               	movlb	0	; () banked
  6391  0020A6  51BE               	movf	i1write_ZIGBEE_short@address& (0+255),w,b
  6392  0020A8  25BE               	addwf	i1write_ZIGBEE_short@address& (0+255),w,b
  6393  0020AA  0B7F               	andlw	127
  6394  0020AC  0901               	iorlw	1
  6395  0020AE  6FBE               	movwf	i1write_ZIGBEE_short@address& (0+255),b
  6396                           
  6397                           ; BSR set to: 0
  6398                           ;zigbee.c: 399: SPI_Write(address);
  6399  0020B0  51BE               	movf	i1write_ZIGBEE_short@address& (0+255),w,b
  6400  0020B2  EC66  F011         	call	i1_SPI_Write
  6401                           
  6402                           ;zigbee.c: 400: SPI_Write(data_r);
  6403  0020B6  0100               	movlb	0	; () banked
  6404  0020B8  51BD               	movf	i1write_ZIGBEE_short@data_r& (0+255),w,b
  6405  0020BA  EC66  F011         	call	i1_SPI_Write
  6406                           
  6407                           ;zigbee.c: 401: PORTCbits.RC0=1;
  6408  0020BE  8082               	bsf	3970,0,c	;volatile
  6409  0020C0  0012               	return		;funcret
  6410  0020C2                     __end_ofi1_write_ZIGBEE_short:
  6411                           	opt stack 0
  6412                           pclatu	equ	0xFFB
  6413                           pclath	equ	0xFFA
  6414                           tblptru	equ	0xFF8
  6415                           tblptrh	equ	0xFF7
  6416                           tblptrl	equ	0xFF6
  6417                           tablat	equ	0xFF5
  6418                           prodh	equ	0xFF4
  6419                           prodl	equ	0xFF3
  6420                           intcon	equ	0xFF2
  6421                           intcon2	equ	0xFF1
  6422                           postinc0	equ	0xFEE
  6423                           fsr0h	equ	0xFEA
  6424                           fsr0l	equ	0xFE9
  6425                           wreg	equ	0xFE8
  6426                           indf1	equ	0xFE7
  6427                           postdec1	equ	0xFE5
  6428                           fsr1h	equ	0xFE2
  6429                           fsr1l	equ	0xFE1
  6430                           bsr	equ	0xFE0
  6431                           indf2	equ	0xFDF
  6432                           fsr2h	equ	0xFDA
  6433                           fsr2l	equ	0xFD9
  6434                           status	equ	0xFD8
  6435                           
  6436 ;; *************** function i1_SPI_Write *****************
  6437 ;; Defined at:
  6438 ;;		line 457 in file "zigbee.c"
  6439 ;; Parameters:    Size  Location     Type
  6440 ;;  command         1    wreg     unsigned char 
  6441 ;; Auto vars:     Size  Location     Type
  6442 ;;  command         1    1[BANK0 ] unsigned char 
  6443 ;;  SPI_Write       1    0[BANK0 ] unsigned char 
  6444 ;; Return value:  Size  Location     Type
  6445 ;;                  1    wreg      void 
  6446 ;; Registers used:
  6447 ;;		wreg
  6448 ;; Tracked objects:
  6449 ;;		On entry : 0/0
  6450 ;;		On exit  : 0/0
  6451 ;;		Unchanged: 0/0
  6452 ;; Data sizes:     COMRAM   BANK0   BANK1   BANK2   BANK3   BANK4   BANK5   BANK6   BANK7   BANK8   BANK9  BANK10  BANK1
      +1  BANK12  BANK13  BANK14  BANK15
  6453 ;;      Params:         0       0       0       0       0       0       0       0       0       0       0       0       
      +0       0       0       0       0
  6454 ;;      Locals:         0       2       0       0       0       0       0       0       0       0       0       0       
      +0       0       0       0       0
  6455 ;;      Temps:          0       0       0       0       0       0       0       0       0       0       0       0       
      +0       0       0       0       0
  6456 ;;      Totals:         0       2       0       0       0       0       0       0       0       0       0       0       
      +0       0       0       0       0
  6457 ;;Total ram usage:        2 bytes
  6458 ;; Hardware stack levels used:    1
  6459 ;; Hardware stack levels required when called:    4
  6460 ;; This function calls:
  6461 ;;		Nothing
  6462 ;; This function is called by:
  6463 ;;		_read_ZIGBEE_short
  6464 ;;		i1_write_ZIGBEE_short
  6465 ;;		i1_write_ZIGBEE_long
  6466 ;; This function uses a non-reentrant model
  6467 ;;
  6468                           
  6469                           	psect	text46
  6470  0022CC                     __ptext46:
  6471                           	opt stack 0
  6472  0022CC                     i1_SPI_Write:
  6473                           	opt stack 18
  6474                           
  6475                           ;incstack = 0
  6476                           ;i1SPI_Write@command stored from wreg
  6477  0022CC  0100               	movlb	0	; () banked
  6478  0022CE  6FBC               	movwf	i1SPI_Write@command& (0+255),b
  6479                           
  6480                           ;zigbee.c: 458: unsigned char response;
  6481                           ;zigbee.c: 459: SSP1BUF = command;
  6482  0022D0  C0BC  FFC9         	movff	i1SPI_Write@command,4041	;volatile
  6483  0022D4  A0C7               	btfss	4039,0,c	;volatile
  6484  0022D6  D7FE               	goto	i1l527
  6485                           
  6486                           ;zigbee.c: 461: response = SSP1BUF;
  6487  0022D8  CFC9 F0BB          	movff	4041,i1SPI_Write@response	;volatile
  6488  0022DC  0012               	return		;funcret
  6489  0022DE                     __end_ofi1_SPI_Write:
  6490                           	opt stack 0
  6491                           pclatu	equ	0xFFB
  6492                           pclath	equ	0xFFA
  6493                           tblptru	equ	0xFF8
  6494                           tblptrh	equ	0xFF7
  6495                           tblptrl	equ	0xFF6
  6496                           tablat	equ	0xFF5
  6497                           prodh	equ	0xFF4
  6498                           prodl	equ	0xFF3
  6499                           intcon	equ	0xFF2
  6500                           intcon2	equ	0xFF1
  6501                           postinc0	equ	0xFEE
  6502                           fsr0h	equ	0xFEA
  6503                           fsr0l	equ	0xFE9
  6504                           wreg	equ	0xFE8
  6505                           indf1	equ	0xFE7
  6506                           postdec1	equ	0xFE5
  6507                           fsr1h	equ	0xFE2
  6508                           fsr1l	equ	0xFE1
  6509                           bsr	equ	0xFE0
  6510                           indf2	equ	0xFDF
  6511                           fsr2h	equ	0xFDA
  6512                           fsr2l	equ	0xFD9
  6513                           status	equ	0xFD8
  6514                           
  6515 ;; *************** function _Xor_check *****************
  6516 ;; Defined at:
  6517 ;;		line 501 in file "zigbee.c"
  6518 ;; Parameters:    Size  Location     Type
  6519 ;;  data_value      2    0[BANK0 ] PTR unsigned char 
  6520 ;;		 -> DATA_TX(3), DATA_RX(5), 
  6521 ;;  length          1    2[BANK0 ] unsigned char 
  6522 ;; Auto vars:     Size  Location     Type
  6523 ;;  xor             2    6[BANK0 ] unsigned short 
  6524 ;;  xor_value       2    4[BANK0 ] unsigned short 
  6525 ;; Return value:  Size  Location     Type
  6526 ;;                  2    0[BANK0 ] unsigned short 
  6527 ;; Registers used:
  6528 ;;		wreg, fsr2l, fsr2h, status,2, status,0
  6529 ;; Tracked objects:
  6530 ;;		On entry : 0/0
  6531 ;;		On exit  : 0/0
  6532 ;;		Unchanged: 0/0
  6533 ;; Data sizes:     COMRAM   BANK0   BANK1   BANK2   BANK3   BANK4   BANK5   BANK6   BANK7   BANK8   BANK9  BANK10  BANK1
      +1  BANK12  BANK13  BANK14  BANK15
  6534 ;;      Params:         0       3       0       0       0       0       0       0       0       0       0       0       
      +0       0       0       0       0
  6535 ;;      Locals:         0       4       0       0       0       0       0       0       0       0       0       0       
      +0       0       0       0       0
  6536 ;;      Temps:          0       1       0       0       0       0       0       0       0       0       0       0       
      +0       0       0       0       0
  6537 ;;      Totals:         0       8       0       0       0       0       0       0       0       0       0       0       
      +0       0       0       0       0
  6538 ;;Total ram usage:        8 bytes
  6539 ;; Hardware stack levels used:    1
  6540 ;; Hardware stack levels required when called:    4
  6541 ;; This function calls:
  6542 ;;		Nothing
  6543 ;; This function is called by:
  6544 ;;		_write_TX_normal_FIFO
  6545 ;; This function uses a non-reentrant model
  6546 ;;
  6547                           
  6548                           	psect	text47
  6549  001DC0                     __ptext47:
  6550                           	opt stack 0
  6551  001DC0                     _Xor_check:
  6552                           	opt stack 19
  6553                           
  6554                           ;zigbee.c: 503: unsigned short xor_value = 0x8d0d;
  6555                           
  6556                           ;incstack = 0
  6557  001DC0  0E8D               	movlw	141
  6558  001DC2  0100               	movlb	0	; () banked
  6559  001DC4  6FC0               	movwf	(Xor_check@xor_value+1)& (0+255),b
  6560  001DC6  0E0D               	movlw	13
  6561  001DC8  6FBF               	movwf	Xor_check@xor_value& (0+255),b
  6562                           
  6563                           ;zigbee.c: 504: unsigned short xor=0x00;
  6564  001DCA  0E00               	movlw	0
  6565  001DCC  6FC2               	movwf	(Xor_check@xor+1)& (0+255),b
  6566  001DCE  0E00               	movlw	0
  6567  001DD0  6FC1               	movwf	Xor_check@xor& (0+255),b
  6568                           
  6569                           ;zigbee.c: 505: while(length --)
  6570  001DD2  D00A               	goto	i1l572
  6571  001DD4                     
  6572                           ; BSR set to: 0
  6573                           ;zigbee.c: 506: {
  6574                           ;zigbee.c: 507: xor_value ^= *data_value++;
  6575                           
  6576                           ; BSR set to: 0
  6577  001DD4  C0BB  FFD9         	movff	Xor_check@data_value,fsr2l
  6578  001DD8  C0BC  FFDA         	movff	Xor_check@data_value+1,fsr2h
  6579  001DDC  50DF               	movf	indf2,w,c
  6580  001DDE  6FBE               	movwf	??_Xor_check& (0+255),b
  6581  001DE0  51BE               	movf	??_Xor_check& (0+255),w,b
  6582  001DE2  1BBF               	xorwf	Xor_check@xor_value& (0+255),f,b
  6583                           
  6584                           ; BSR set to: 0
  6585  001DE4  4BBB               	infsnz	Xor_check@data_value& (0+255),f,b
  6586  001DE6  2BBC               	incf	(Xor_check@data_value+1)& (0+255),f,b
  6587  001DE8                     i1l572:
  6588                           
  6589                           ; BSR set to: 0
  6590                           
  6591                           ; BSR set to: 0
  6592  001DE8  07BD               	decf	Xor_check@length& (0+255),f,b
  6593  001DEA  29BD               	incf	Xor_check@length& (0+255),w,b
  6594  001DEC  A4D8               	btfss	status,2,c
  6595  001DEE  D7F2               	goto	i1l573
  6596                           
  6597                           ; BSR set to: 0
  6598                           ;zigbee.c: 508: }
  6599                           ;zigbee.c: 509: xor=xor_value;
  6600  001DF0  C0BF  F0C1         	movff	Xor_check@xor_value,Xor_check@xor
  6601  001DF4  C0C0  F0C2         	movff	Xor_check@xor_value+1,Xor_check@xor+1
  6602                           
  6603                           ;zigbee.c: 510: return(xor);
  6604  001DF8  C0C1  F0BB         	movff	Xor_check@xor,?_Xor_check
  6605  001DFC  C0C2  F0BC         	movff	Xor_check@xor+1,?_Xor_check+1
  6606                           
  6607                           ; BSR set to: 0
  6608  001E00  0012               	return		;funcret
  6609  001E02                     __end_of_Xor_check:
  6610                           	opt stack 0
  6611                           pclatu	equ	0xFFB
  6612                           pclath	equ	0xFFA
  6613                           tblptru	equ	0xFF8
  6614                           tblptrh	equ	0xFF7
  6615                           tblptrl	equ	0xFF6
  6616                           tablat	equ	0xFF5
  6617                           prodh	equ	0xFF4
  6618                           prodl	equ	0xFF3
  6619                           intcon	equ	0xFF2
  6620                           intcon2	equ	0xFF1
  6621                           postinc0	equ	0xFEE
  6622                           fsr0h	equ	0xFEA
  6623                           fsr0l	equ	0xFE9
  6624                           wreg	equ	0xFE8
  6625                           indf1	equ	0xFE7
  6626                           postdec1	equ	0xFE5
  6627                           fsr1h	equ	0xFE2
  6628                           fsr1l	equ	0xFE1
  6629                           bsr	equ	0xFE0
  6630                           indf2	equ	0xFDF
  6631                           fsr2h	equ	0xFDA
  6632                           fsr2l	equ	0xFD9
  6633                           status	equ	0xFD8
  6634                           
  6635 ;; *************** function _TMR0_ISR *****************
  6636 ;; Defined at:
  6637 ;;		line 128 in file "mcc_generated_files/tmr0.c"
  6638 ;; Parameters:    Size  Location     Type
  6639 ;;		None
  6640 ;; Auto vars:     Size  Location     Type
  6641 ;;		None
  6642 ;; Return value:  Size  Location     Type
  6643 ;;                  1    wreg      void 
  6644 ;; Registers used:
  6645 ;;		wreg, status,2, status,0, pclath, tosl, cstack
  6646 ;; Tracked objects:
  6647 ;;		On entry : 0/0
  6648 ;;		On exit  : 0/0
  6649 ;;		Unchanged: 0/0
  6650 ;; Data sizes:     COMRAM   BANK0   BANK1   BANK2   BANK3   BANK4   BANK5   BANK6   BANK7   BANK8   BANK9  BANK10  BANK1
      +1  BANK12  BANK13  BANK14  BANK15
  6651 ;;      Params:         0       0       0       0       0       0       0       0       0       0       0       0       
      +0       0       0       0       0
  6652 ;;      Locals:         0       0       0       0       0       0       0       0       0       0       0       0       
      +0       0       0       0       0
  6653 ;;      Temps:          0       0       0       0       0       0       0       0       0       0       0       0       
      +0       0       0       0       0
  6654 ;;      Totals:         0       0       0       0       0       0       0       0       0       0       0       0       
      +0       0       0       0       0
  6655 ;;Total ram usage:        0 bytes
  6656 ;; Hardware stack levels used:    1
  6657 ;; Hardware stack levels required when called:    6
  6658 ;; This function calls:
  6659 ;;		_TMR0_CallBack
  6660 ;; This function is called by:
  6661 ;;		_INTERRUPT_InterruptManagerLow
  6662 ;; This function uses a non-reentrant model
  6663 ;;
  6664                           
  6665                           	psect	text48
  6666  002328                     __ptext48:
  6667                           	opt stack 0
  6668  002328                     _TMR0_ISR:
  6669                           	opt stack 18
  6670                           
  6671                           ;tmr0.c: 132: INTCONbits.TMR0IF = 0;
  6672                           
  6673                           ; BSR set to: 0
  6674                           ;incstack = 0
  6675  002328  94F2               	bcf	intcon,2,c	;volatile
  6676                           
  6677                           ;tmr0.c: 135: TMR0L = timer0ReloadVal;
  6678  00232A  C0B2  FFD6         	movff	_timer0ReloadVal,4054	;volatile
  6679                           
  6680                           ;tmr0.c: 139: TMR0_CallBack();
  6681  00232E  EC61  F010         	call	_TMR0_CallBack	;wreg free
  6682  002332  0012               	return		;funcret
  6683  002334                     __end_of_TMR0_ISR:
  6684                           	opt stack 0
  6685                           pclatu	equ	0xFFB
  6686                           pclath	equ	0xFFA
  6687                           tblptru	equ	0xFF8
  6688                           tblptrh	equ	0xFF7
  6689                           tblptrl	equ	0xFF6
  6690                           tablat	equ	0xFF5
  6691                           prodh	equ	0xFF4
  6692                           prodl	equ	0xFF3
  6693                           intcon	equ	0xFF2
  6694                           intcon2	equ	0xFF1
  6695                           postinc0	equ	0xFEE
  6696                           fsr0h	equ	0xFEA
  6697                           fsr0l	equ	0xFE9
  6698                           wreg	equ	0xFE8
  6699                           indf1	equ	0xFE7
  6700                           postdec1	equ	0xFE5
  6701                           fsr1h	equ	0xFE2
  6702                           fsr1l	equ	0xFE1
  6703                           bsr	equ	0xFE0
  6704                           indf2	equ	0xFDF
  6705                           fsr2h	equ	0xFDA
  6706                           fsr2l	equ	0xFD9
  6707                           status	equ	0xFD8
  6708                           
  6709 ;; *************** function _TMR0_CallBack *****************
  6710 ;; Defined at:
  6711 ;;		line 144 in file "mcc_generated_files/tmr0.c"
  6712 ;; Parameters:    Size  Location     Type
  6713 ;;		None
  6714 ;; Auto vars:     Size  Location     Type
  6715 ;;		None
  6716 ;; Return value:  Size  Location     Type
  6717 ;;                  1    wreg      void 
  6718 ;; Registers used:
  6719 ;;		wreg, status,2, status,0, pclath, tosl, cstack
  6720 ;; Tracked objects:
  6721 ;;		On entry : 0/0
  6722 ;;		On exit  : 0/0
  6723 ;;		Unchanged: 0/0
  6724 ;; Data sizes:     COMRAM   BANK0   BANK1   BANK2   BANK3   BANK4   BANK5   BANK6   BANK7   BANK8   BANK9  BANK10  BANK1
      +1  BANK12  BANK13  BANK14  BANK15
  6725 ;;      Params:         0       0       0       0       0       0       0       0       0       0       0       0       
      +0       0       0       0       0
  6726 ;;      Locals:         0       0       0       0       0       0       0       0       0       0       0       0       
      +0       0       0       0       0
  6727 ;;      Temps:          0       0       0       0       0       0       0       0       0       0       0       0       
      +0       0       0       0       0
  6728 ;;      Totals:         0       0       0       0       0       0       0       0       0       0       0       0       
      +0       0       0       0       0
  6729 ;;Total ram usage:        0 bytes
  6730 ;; Hardware stack levels used:    1
  6731 ;; Hardware stack levels required when called:    5
  6732 ;; This function calls:
  6733 ;;		Absolute function
  6734 ;;		_TMR0_DefaultInterruptHandler
  6735 ;; This function is called by:
  6736 ;;		_TMR0_ISR
  6737 ;; This function uses a non-reentrant model
  6738 ;;
  6739                           
  6740                           	psect	text49
  6741  0020C2                     __ptext49:
  6742                           	opt stack 0
  6743  0020C2                     _TMR0_CallBack:
  6744                           	opt stack 18
  6745                           
  6746                           ;tmr0.c: 148: if(TMR0_InterruptHandler)
  6747                           
  6748                           ;incstack = 0
  6749  0020C2  0100               	movlb	0	; () banked
  6750  0020C4  518C               	movf	_TMR0_InterruptHandler& (0+255),w,b
  6751  0020C6  118D               	iorwf	(_TMR0_InterruptHandler+1)& (0+255),w,b
  6752  0020C8  118E               	iorwf	(_TMR0_InterruptHandler+2)& (0+255),w,b
  6753  0020CA  B4D8               	btfsc	status,2,c
  6754  0020CC  0012               	return	
  6755                           
  6756                           ; BSR set to: 0
  6757                           ;tmr0.c: 149: {
  6758                           ;tmr0.c: 150: TMR0_InterruptHandler();
  6759  0020CE  D801               	call	i1u167_28
  6760  0020D0  0012               	return	
  6761  0020D2                     i1u167_28:
  6762  0020D2  0005               	push	
  6763  0020D4  6EFA               	movwf	pclath,c
  6764  0020D6  518C               	movf	_TMR0_InterruptHandler& (0+255),w,b
  6765  0020D8  6EFD               	movwf	tosl,c
  6766  0020DA  518D               	movf	(_TMR0_InterruptHandler+1)& (0+255),w,b
  6767  0020DC  6EFE               	movwf	tosh,c
  6768  0020DE  518E               	movf	(_TMR0_InterruptHandler+2)& (0+255),w,b
  6769  0020E0  6EFF               	movwf	tosu,c
  6770  0020E2  50FA               	movf	pclath,w,c
  6771  0020E4  0012               	return		;indir
  6772  0020E6                     __end_of_TMR0_CallBack:
  6773                           	opt stack 0
  6774                           tosu	equ	0xFFF
  6775                           tosh	equ	0xFFE
  6776                           tosl	equ	0xFFD
  6777                           pclatu	equ	0xFFB
  6778                           pclath	equ	0xFFA
  6779                           tblptru	equ	0xFF8
  6780                           tblptrh	equ	0xFF7
  6781                           tblptrl	equ	0xFF6
  6782                           tablat	equ	0xFF5
  6783                           prodh	equ	0xFF4
  6784                           prodl	equ	0xFF3
  6785                           intcon	equ	0xFF2
  6786                           intcon2	equ	0xFF1
  6787                           postinc0	equ	0xFEE
  6788                           fsr0h	equ	0xFEA
  6789                           fsr0l	equ	0xFE9
  6790                           wreg	equ	0xFE8
  6791                           indf1	equ	0xFE7
  6792                           postdec1	equ	0xFE5
  6793                           fsr1h	equ	0xFE2
  6794                           fsr1l	equ	0xFE1
  6795                           bsr	equ	0xFE0
  6796                           indf2	equ	0xFDF
  6797                           fsr2h	equ	0xFDA
  6798                           fsr2l	equ	0xFD9
  6799                           status	equ	0xFD8
  6800                           
  6801 ;; *************** function _TMR0_DefaultInterruptHandler *****************
  6802 ;; Defined at:
  6803 ;;		line 158 in file "mcc_generated_files/tmr0.c"
  6804 ;; Parameters:    Size  Location     Type
  6805 ;;		None
  6806 ;; Auto vars:     Size  Location     Type
  6807 ;;		None
  6808 ;; Return value:  Size  Location     Type
  6809 ;;                  1    wreg      void 
  6810 ;; Registers used:
  6811 ;;		None
  6812 ;; Tracked objects:
  6813 ;;		On entry : 0/0
  6814 ;;		On exit  : 0/0
  6815 ;;		Unchanged: 0/0
  6816 ;; Data sizes:     COMRAM   BANK0   BANK1   BANK2   BANK3   BANK4   BANK5   BANK6   BANK7   BANK8   BANK9  BANK10  BANK1
      +1  BANK12  BANK13  BANK14  BANK15
  6817 ;;      Params:         0       0       0       0       0       0       0       0       0       0       0       0       
      +0       0       0       0       0
  6818 ;;      Locals:         0       0       0       0       0       0       0       0       0       0       0       0       
      +0       0       0       0       0
  6819 ;;      Temps:          0       0       0       0       0       0       0       0       0       0       0       0       
      +0       0       0       0       0
  6820 ;;      Totals:         0       0       0       0       0       0       0       0       0       0       0       0       
      +0       0       0       0       0
  6821 ;;Total ram usage:        0 bytes
  6822 ;; Hardware stack levels used:    1
  6823 ;; Hardware stack levels required when called:    4
  6824 ;; This function calls:
  6825 ;;		Nothing
  6826 ;; This function is called by:
  6827 ;;		_TMR0_Initialize
  6828 ;;		_TMR0_CallBack
  6829 ;; This function uses a non-reentrant model
  6830 ;;
  6831                           
  6832                           	psect	text50
  6833  002342                     __ptext50:
  6834                           	opt stack 0
  6835  002342                     _TMR0_DefaultInterruptHandler:
  6836                           	opt stack 18
  6837                           
  6838                           ;incstack = 0
  6839  002342  0012               	return		;funcret
  6840  002344                     __end_of_TMR0_DefaultInterruptHandler:
  6841                           	opt stack 0
  6842                           tosu	equ	0xFFF
  6843                           tosh	equ	0xFFE
  6844                           tosl	equ	0xFFD
  6845                           pclatu	equ	0xFFB
  6846                           pclath	equ	0xFFA
  6847                           tblptru	equ	0xFF8
  6848                           tblptrh	equ	0xFF7
  6849                           tblptrl	equ	0xFF6
  6850                           tablat	equ	0xFF5
  6851                           prodh	equ	0xFF4
  6852                           prodl	equ	0xFF3
  6853                           intcon	equ	0xFF2
  6854                           intcon2	equ	0xFF1
  6855                           postinc0	equ	0xFEE
  6856                           fsr0h	equ	0xFEA
  6857                           fsr0l	equ	0xFE9
  6858                           wreg	equ	0xFE8
  6859                           indf1	equ	0xFE7
  6860                           postdec1	equ	0xFE5
  6861                           fsr1h	equ	0xFE2
  6862                           fsr1l	equ	0xFE1
  6863                           bsr	equ	0xFE0
  6864                           indf2	equ	0xFDF
  6865                           fsr2h	equ	0xFDA
  6866                           fsr2l	equ	0xFD9
  6867                           status	equ	0xFD8
  6868                           
  6869 ;; *************** function _INTERRUPT_InterruptManagerHigh *****************
  6870 ;; Defined at:
  6871 ;;		line 45 in file "07_May_LedDisplayMain.c"
  6872 ;; Parameters:    Size  Location     Type
  6873 ;;		None
  6874 ;; Auto vars:     Size  Location     Type
  6875 ;;		None
  6876 ;; Return value:  Size  Location     Type
  6877 ;;                  1    wreg      void 
  6878 ;; Registers used:
  6879 ;;		wreg, fsr1l, fsr1h, fsr2l, fsr2h, status,2, status,0, pclath, tosl, tblptrl, tblptrh, tblptru, prodl, prodh, cstack
  6880 ;; Tracked objects:
  6881 ;;		On entry : 0/0
  6882 ;;		On exit  : 0/0
  6883 ;;		Unchanged: 0/0
  6884 ;; Data sizes:     COMRAM   BANK0   BANK1   BANK2   BANK3   BANK4   BANK5   BANK6   BANK7   BANK8   BANK9  BANK10  BANK1
      +1  BANK12  BANK13  BANK14  BANK15
  6885 ;;      Params:         0       0       0       0       0       0       0       0       0       0       0       0       
      +0       0       0       0       0
  6886 ;;      Locals:         0       0       0       0       0       0       0       0       0       0       0       0       
      +0       0       0       0       0
  6887 ;;      Temps:         20       0       0       0       0       0       0       0       0       0       0       0       
      +0       0       0       0       0
  6888 ;;      Totals:        20       0       0       0       0       0       0       0       0       0       0       0       
      +0       0       0       0       0
  6889 ;;Total ram usage:       20 bytes
  6890 ;; Hardware stack levels used:    1
  6891 ;; Hardware stack levels required when called:    3
  6892 ;; This function calls:
  6893 ;;		_INT0_ISR
  6894 ;;		_Zigbee_data_Store_Buffer
  6895 ;;		_read_RX_FIFO
  6896 ;;		i2_Xor_check
  6897 ;;		i2_read_ZIGBEE_short
  6898 ;; This function is called by:
  6899 ;;		Interrupt level 2
  6900 ;; This function uses a non-reentrant model
  6901 ;;
  6902                           
  6903                           	psect	intcode
  6904  000008                     __pintcode:
  6905                           	opt stack 0
  6906  000008                     _INTERRUPT_InterruptManagerHigh:
  6907                           	opt stack 17
  6908                           
  6909                           ;incstack = 0
  6910  000008  824F               	bsf	btemp,1,c	;set compiler interrupt flag (level 2)
  6911  00000A  EFD6  F00B         	goto	int_func
  6912                           tosu	equ	0xFFF
  6913                           tosh	equ	0xFFE
  6914                           tosl	equ	0xFFD
  6915                           pclatu	equ	0xFFB
  6916                           pclath	equ	0xFFA
  6917                           tblptru	equ	0xFF8
  6918                           tblptrh	equ	0xFF7
  6919                           tblptrl	equ	0xFF6
  6920                           tablat	equ	0xFF5
  6921                           prodh	equ	0xFF4
  6922                           prodl	equ	0xFF3
  6923                           intcon	equ	0xFF2
  6924                           intcon2	equ	0xFF1
  6925                           postinc0	equ	0xFEE
  6926                           fsr0h	equ	0xFEA
  6927                           fsr0l	equ	0xFE9
  6928                           wreg	equ	0xFE8
  6929                           indf1	equ	0xFE7
  6930                           postdec1	equ	0xFE5
  6931                           fsr1h	equ	0xFE2
  6932                           fsr1l	equ	0xFE1
  6933                           bsr	equ	0xFE0
  6934                           indf2	equ	0xFDF
  6935                           fsr2h	equ	0xFDA
  6936                           fsr2l	equ	0xFD9
  6937                           status	equ	0xFD8
  6938                           
  6939                           	psect	intcode_body
  6940  0017AC                     __pintcode_body:
  6941                           	opt stack 17
  6942  0017AC                     int_func:
  6943                           	opt stack 17
  6944  0017AC  CFFA F03C          	movff	pclath,??_INTERRUPT_InterruptManagerHigh+2
  6945  0017B0  CFFB F03D          	movff	pclatu,??_INTERRUPT_InterruptManagerHigh+3
  6946  0017B4  CFE9 F03E          	movff	fsr0l,??_INTERRUPT_InterruptManagerHigh+4
  6947  0017B8  CFEA F03F          	movff	fsr0h,??_INTERRUPT_InterruptManagerHigh+5
  6948  0017BC  CFE1 F040          	movff	fsr1l,??_INTERRUPT_InterruptManagerHigh+6
  6949  0017C0  CFE2 F041          	movff	fsr1h,??_INTERRUPT_InterruptManagerHigh+7
  6950  0017C4  CFD9 F042          	movff	fsr2l,??_INTERRUPT_InterruptManagerHigh+8
  6951  0017C8  CFDA F043          	movff	fsr2h,??_INTERRUPT_InterruptManagerHigh+9
  6952  0017CC  CFF3 F044          	movff	prodl,??_INTERRUPT_InterruptManagerHigh+10
  6953  0017D0  CFF4 F045          	movff	prodh,??_INTERRUPT_InterruptManagerHigh+11
  6954  0017D4  CFF6 F046          	movff	tblptrl,??_INTERRUPT_InterruptManagerHigh+12
  6955  0017D8  CFF7 F047          	movff	tblptrh,??_INTERRUPT_InterruptManagerHigh+13
  6956  0017DC  CFF8 F048          	movff	tblptru,??_INTERRUPT_InterruptManagerHigh+14
  6957  0017E0  CFF5 F049          	movff	tablat,??_INTERRUPT_InterruptManagerHigh+15
  6958  0017E4  C04F  F04A         	movff	btemp,??_INTERRUPT_InterruptManagerHigh+16
  6959  0017E8  C050  F04B         	movff	btemp+1,??_INTERRUPT_InterruptManagerHigh+17
  6960  0017EC  C051  F04C         	movff	btemp+2,??_INTERRUPT_InterruptManagerHigh+18
  6961  0017F0  C052  F04D         	movff	btemp+3,??_INTERRUPT_InterruptManagerHigh+19
  6962                           
  6963                           ;07_May_LedDisplayMain.c: 48: if(INTCONbits.INT0IE == 1 && INTCONbits.INT0IF == 1)
  6964  0017F4  B8F2               	btfsc	intcon,4,c	;volatile
  6965  0017F6  A2F2               	btfss	intcon,1,c	;volatile
  6966  0017F8  D021               	goto	i2l844
  6967                           
  6968                           ;07_May_LedDisplayMain.c: 49: {
  6969                           ;07_May_LedDisplayMain.c: 50: INTTRUPT=read_ZIGBEE_short(0X31);
  6970  0017FA  0E31               	movlw	49
  6971  0017FC  EC96  F010         	call	i2_read_ZIGBEE_short
  6972  001800  6E29               	movwf	_INTTRUPT,c
  6973                           
  6974                           ;07_May_LedDisplayMain.c: 52: if((INTTRUPT & 0x08)==0x08)
  6975  001802  A629               	btfss	_INTTRUPT,3,c
  6976  001804  D019               	goto	i2l845
  6977                           
  6978                           ;07_May_LedDisplayMain.c: 53: {
  6979                           ;07_May_LedDisplayMain.c: 54: INTCONbits.GIE=0;
  6980  001806  9EF2               	bcf	intcon,7,c	;volatile
  6981                           
  6982                           ;07_May_LedDisplayMain.c: 55: read_RX_FIFO();
  6983  001808  EC08  F008         	call	_read_RX_FIFO	;wreg free
  6984                           
  6985                           ;07_May_LedDisplayMain.c: 56: INTCONbits.GIE=1;
  6986  00180C  8EF2               	bsf	intcon,7,c	;volatile
  6987                           
  6988                           ;07_May_LedDisplayMain.c: 57: CRC=Xor_check(DATA_RX,3);
  6989  00180E  0EB3               	movlw	low _DATA_RX
  6990  001810  6E2A               	movwf	i2Xor_check@data_value,c
  6991  001812  0E00               	movlw	high _DATA_RX
  6992  001814  6E2B               	movwf	i2Xor_check@data_value+1,c
  6993  001816  0E03               	movlw	3
  6994  001818  6E2C               	movwf	i2Xor_check@length,c
  6995  00181A  EC01  F00F         	call	i2_Xor_check	;wreg free
  6996  00181E  C02A  F099         	movff	?i2_Xor_check,_CRC
  6997  001822  C02B  F09A         	movff	?i2_Xor_check+1,_CRC+1
  6998                           
  6999                           ;07_May_LedDisplayMain.c: 58: Rv_CRC=(((unsigned int)DATA_RX[3+1]<<8) | DATA_RX[3+0]);
  7000  001826  0100               	movlb	0	; () banked
  7001  001828  51B7               	movf	(_DATA_RX+4)& (0+255),w,b
  7002  00182A  6E3A               	movwf	??_INTERRUPT_InterruptManagerHigh& (0+255),c
  7003  00182C  51B6               	movf	(_DATA_RX+3)& (0+255),w,b
  7004  00182E  6F9D               	movwf	_Rv_CRC& (0+255),b
  7005  001830  C03A  F09E         	movff	??_INTERRUPT_InterruptManagerHigh,_Rv_CRC+1
  7006                           
  7007                           ; BSR set to: 0
  7008                           ;07_May_LedDisplayMain.c: 59: Zigbee_data_Store_Buffer();
  7009  001834  EC94  F00F         	call	_Zigbee_data_Store_Buffer	;wreg free
  7010  001838                     i2l845:
  7011                           
  7012                           ;07_May_LedDisplayMain.c: 60: }
  7013                           ;07_May_LedDisplayMain.c: 62: INT0_ISR();
  7014  001838  EC9A  F011         	call	_INT0_ISR	;wreg free
  7015  00183C                     i2l844:
  7016                           
  7017                           ;07_May_LedDisplayMain.c: 64: else
  7018                           ;07_May_LedDisplayMain.c: 65: {
  7019  00183C  C04D  F052         	movff	??_INTERRUPT_InterruptManagerHigh+19,btemp+3
  7020  001840  C04C  F051         	movff	??_INTERRUPT_InterruptManagerHigh+18,btemp+2
  7021  001844  C04B  F050         	movff	??_INTERRUPT_InterruptManagerHigh+17,btemp+1
  7022  001848  C04A  F04F         	movff	??_INTERRUPT_InterruptManagerHigh+16,btemp
  7023  00184C  C049  FFF5         	movff	??_INTERRUPT_InterruptManagerHigh+15,tablat
  7024  001850  C048  FFF8         	movff	??_INTERRUPT_InterruptManagerHigh+14,tblptru
  7025  001854  C047  FFF7         	movff	??_INTERRUPT_InterruptManagerHigh+13,tblptrh
  7026  001858  C046  FFF6         	movff	??_INTERRUPT_InterruptManagerHigh+12,tblptrl
  7027  00185C  C045  FFF4         	movff	??_INTERRUPT_InterruptManagerHigh+11,prodh
  7028  001860  C044  FFF3         	movff	??_INTERRUPT_InterruptManagerHigh+10,prodl
  7029  001864  C043  FFDA         	movff	??_INTERRUPT_InterruptManagerHigh+9,fsr2h
  7030  001868  C042  FFD9         	movff	??_INTERRUPT_InterruptManagerHigh+8,fsr2l
  7031  00186C  C041  FFE2         	movff	??_INTERRUPT_InterruptManagerHigh+7,fsr1h
  7032  001870  C040  FFE1         	movff	??_INTERRUPT_InterruptManagerHigh+6,fsr1l
  7033  001874  C03F  FFEA         	movff	??_INTERRUPT_InterruptManagerHigh+5,fsr0h
  7034  001878  C03E  FFE9         	movff	??_INTERRUPT_InterruptManagerHigh+4,fsr0l
  7035  00187C  C03D  FFFB         	movff	??_INTERRUPT_InterruptManagerHigh+3,pclatu
  7036  001880  C03C  FFFA         	movff	??_INTERRUPT_InterruptManagerHigh+2,pclath
  7037  001884  924F               	bcf	btemp,1,c	;clear compiler interrupt flag (level 2)
  7038  001886  0011               	retfie		f
  7039  001888                     __end_of_INTERRUPT_InterruptManagerHigh:
  7040                           	opt stack 0
  7041                           tosu	equ	0xFFF
  7042                           tosh	equ	0xFFE
  7043                           tosl	equ	0xFFD
  7044                           pclatu	equ	0xFFB
  7045                           pclath	equ	0xFFA
  7046                           tblptru	equ	0xFF8
  7047                           tblptrh	equ	0xFF7
  7048                           tblptrl	equ	0xFF6
  7049                           tablat	equ	0xFF5
  7050                           prodh	equ	0xFF4
  7051                           prodl	equ	0xFF3
  7052                           intcon	equ	0xFF2
  7053                           intcon2	equ	0xFF1
  7054                           postinc0	equ	0xFEE
  7055                           fsr0h	equ	0xFEA
  7056                           fsr0l	equ	0xFE9
  7057                           wreg	equ	0xFE8
  7058                           indf1	equ	0xFE7
  7059                           postdec1	equ	0xFE5
  7060                           fsr1h	equ	0xFE2
  7061                           fsr1l	equ	0xFE1
  7062                           bsr	equ	0xFE0
  7063                           indf2	equ	0xFDF
  7064                           fsr2h	equ	0xFDA
  7065                           fsr2l	equ	0xFD9
  7066                           status	equ	0xFD8
  7067                           
  7068 ;; *************** function i2_read_ZIGBEE_short *****************
  7069 ;; Defined at:
  7070 ;;		line 403 in file "zigbee.c"
  7071 ;; Parameters:    Size  Location     Type
  7072 ;;  address         1    wreg     unsigned char 
  7073 ;; Auto vars:     Size  Location     Type
  7074 ;;  address         1    2[COMRAM] unsigned char 
  7075 ;;  read_ZIGBEE_    1    3[COMRAM] unsigned char 
  7076 ;; Return value:  Size  Location     Type
  7077 ;;                  1    wreg      unsigned char 
  7078 ;; Registers used:
  7079 ;;		wreg, status,2, status,0, cstack
  7080 ;; Tracked objects:
  7081 ;;		On entry : 0/0
  7082 ;;		On exit  : 0/0
  7083 ;;		Unchanged: 0/0
  7084 ;; Data sizes:     COMRAM   BANK0   BANK1   BANK2   BANK3   BANK4   BANK5   BANK6   BANK7   BANK8   BANK9  BANK10  BANK1
      +1  BANK12  BANK13  BANK14  BANK15
  7085 ;;      Params:         0       0       0       0       0       0       0       0       0       0       0       0       
      +0       0       0       0       0
  7086 ;;      Locals:         2       0       0       0       0       0       0       0       0       0       0       0       
      +0       0       0       0       0
  7087 ;;      Temps:          0       0       0       0       0       0       0       0       0       0       0       0       
      +0       0       0       0       0
  7088 ;;      Totals:         2       0       0       0       0       0       0       0       0       0       0       0       
      +0       0       0       0       0
  7089 ;;Total ram usage:        2 bytes
  7090 ;; Hardware stack levels used:    1
  7091 ;; Hardware stack levels required when called:    1
  7092 ;; This function calls:
  7093 ;;		i2_SPI_Read
  7094 ;;		i2_SPI_Write
  7095 ;; This function is called by:
  7096 ;;		_INTERRUPT_InterruptManagerHigh
  7097 ;; This function uses a non-reentrant model
  7098 ;;
  7099                           
  7100                           	psect	text52
  7101  00212C                     __ptext52:
  7102                           	opt stack 0
  7103  00212C                     i2_read_ZIGBEE_short:
  7104                           	opt stack 18
  7105                           
  7106                           ;incstack = 0
  7107                           ;i2read_ZIGBEE_short@address stored from wreg
  7108  00212C  6E2C               	movwf	i2read_ZIGBEE_short@address,c
  7109                           
  7110                           ;zigbee.c: 404: unsigned char data_r = 0;
  7111  00212E  0E00               	movlw	0
  7112  002130  6E2D               	movwf	i2read_ZIGBEE_short@data_r,c
  7113                           
  7114                           ;zigbee.c: 406: PORTCbits.RC0=0;
  7115  002132  9082               	bcf	3970,0,c	;volatile
  7116                           
  7117                           ;zigbee.c: 407: address = (address << 1) & 0b01111110;
  7118  002134  502C               	movf	i2read_ZIGBEE_short@address,w,c
  7119  002136  242C               	addwf	i2read_ZIGBEE_short@address,w,c
  7120  002138  0B7E               	andlw	126
  7121  00213A  6E2C               	movwf	i2read_ZIGBEE_short@address,c
  7122                           
  7123                           ;zigbee.c: 408: SPI_Write(address);
  7124  00213C  502C               	movf	i2read_ZIGBEE_short@address,w,c
  7125  00213E  EC6F  F011         	call	i2_SPI_Write
  7126                           
  7127                           ;zigbee.c: 409: data_r = SPI_Read();
  7128  002142  EC77  F011         	call	i2_SPI_Read	;wreg free
  7129  002146  6E2D               	movwf	i2read_ZIGBEE_short@data_r,c
  7130                           
  7131                           ;zigbee.c: 410: PORTCbits.RC0=1;
  7132  002148  8082               	bsf	3970,0,c	;volatile
  7133                           
  7134                           ;zigbee.c: 412: return data_r;
  7135  00214A  502D               	movf	i2read_ZIGBEE_short@data_r,w,c
  7136  00214C  0012               	return	
  7137  00214E                     __end_ofi2_read_ZIGBEE_short:
  7138                           	opt stack 0
  7139                           tosu	equ	0xFFF
  7140                           tosh	equ	0xFFE
  7141                           tosl	equ	0xFFD
  7142                           pclatu	equ	0xFFB
  7143                           pclath	equ	0xFFA
  7144                           tblptru	equ	0xFF8
  7145                           tblptrh	equ	0xFF7
  7146                           tblptrl	equ	0xFF6
  7147                           tablat	equ	0xFF5
  7148                           prodh	equ	0xFF4
  7149                           prodl	equ	0xFF3
  7150                           intcon	equ	0xFF2
  7151                           intcon2	equ	0xFF1
  7152                           postinc0	equ	0xFEE
  7153                           fsr0h	equ	0xFEA
  7154                           fsr0l	equ	0xFE9
  7155                           wreg	equ	0xFE8
  7156                           indf1	equ	0xFE7
  7157                           postdec1	equ	0xFE5
  7158                           fsr1h	equ	0xFE2
  7159                           fsr1l	equ	0xFE1
  7160                           bsr	equ	0xFE0
  7161                           indf2	equ	0xFDF
  7162                           fsr2h	equ	0xFDA
  7163                           fsr2l	equ	0xFD9
  7164                           status	equ	0xFD8
  7165                           
  7166 ;; *************** function i2_Xor_check *****************
  7167 ;; Defined at:
  7168 ;;		line 501 in file "zigbee.c"
  7169 ;; Parameters:    Size  Location     Type
  7170 ;;  data_value      2    0[COMRAM] PTR unsigned char 
  7171 ;;		 -> DATA_TX(3), DATA_RX(5), 
  7172 ;;  length          1    2[COMRAM] unsigned char 
  7173 ;; Auto vars:     Size  Location     Type
  7174 ;;  Xor_check       2    6[COMRAM] unsigned short 
  7175 ;;  Xor_check       2    4[COMRAM] unsigned short 
  7176 ;; Return value:  Size  Location     Type
  7177 ;;                  2    0[COMRAM] unsigned short 
  7178 ;; Registers used:
  7179 ;;		wreg, fsr2l, fsr2h, status,2, status,0
  7180 ;; Tracked objects:
  7181 ;;		On entry : 0/0
  7182 ;;		On exit  : 0/0
  7183 ;;		Unchanged: 0/0
  7184 ;; Data sizes:     COMRAM   BANK0   BANK1   BANK2   BANK3   BANK4   BANK5   BANK6   BANK7   BANK8   BANK9  BANK10  BANK1
      +1  BANK12  BANK13  BANK14  BANK15
  7185 ;;      Params:         3       0       0       0       0       0       0       0       0       0       0       0       
      +0       0       0       0       0
  7186 ;;      Locals:         4       0       0       0       0       0       0       0       0       0       0       0       
      +0       0       0       0       0
  7187 ;;      Temps:          1       0       0       0       0       0       0       0       0       0       0       0       
      +0       0       0       0       0
  7188 ;;      Totals:         8       0       0       0       0       0       0       0       0       0       0       0       
      +0       0       0       0       0
  7189 ;;Total ram usage:        8 bytes
  7190 ;; Hardware stack levels used:    1
  7191 ;; This function calls:
  7192 ;;		Nothing
  7193 ;; This function is called by:
  7194 ;;		_INTERRUPT_InterruptManagerHigh
  7195 ;; This function uses a non-reentrant model
  7196 ;;
  7197                           
  7198                           	psect	text53
  7199  001E02                     __ptext53:
  7200                           	opt stack 0
  7201  001E02                     i2_Xor_check:
  7202                           	opt stack 19
  7203                           
  7204                           ;zigbee.c: 503: unsigned short xor_value = 0x8d0d;
  7205                           
  7206                           ;incstack = 0
  7207  001E02  0E8D               	movlw	141
  7208  001E04  6E2F               	movwf	i2Xor_check@xor_value+1,c
  7209  001E06  0E0D               	movlw	13
  7210  001E08  6E2E               	movwf	i2Xor_check@xor_value,c
  7211                           
  7212                           ;zigbee.c: 504: unsigned short xor=0x00;
  7213  001E0A  0E00               	movlw	0
  7214  001E0C  6E31               	movwf	i2Xor_check@xor+1,c
  7215  001E0E  0E00               	movlw	0
  7216  001E10  6E30               	movwf	i2Xor_check@xor,c
  7217                           
  7218                           ;zigbee.c: 505: while(length --)
  7219  001E12  D00A               	goto	i2l572
  7220  001E14                     
  7221                           ;zigbee.c: 506: {
  7222                           ;zigbee.c: 507: xor_value ^= *data_value++;
  7223  001E14  C02A  FFD9         	movff	i2Xor_check@data_value,fsr2l
  7224  001E18  C02B  FFDA         	movff	i2Xor_check@data_value+1,fsr2h
  7225  001E1C  50DF               	movf	indf2,w,c
  7226  001E1E  6E2D               	movwf	??i2_Xor_check& (0+255),c
  7227  001E20  502D               	movf	??i2_Xor_check,w,c
  7228  001E22  1A2E               	xorwf	i2Xor_check@xor_value,f,c
  7229  001E24  4A2A               	infsnz	i2Xor_check@data_value,f,c
  7230  001E26  2A2B               	incf	i2Xor_check@data_value+1,f,c
  7231  001E28                     i2l572:
  7232  001E28  062C               	decf	i2Xor_check@length,f,c
  7233  001E2A  282C               	incf	i2Xor_check@length,w,c
  7234  001E2C  A4D8               	btfss	status,2,c
  7235  001E2E  D7F2               	goto	i2l573
  7236                           
  7237                           ;zigbee.c: 508: }
  7238                           ;zigbee.c: 509: xor=xor_value;
  7239  001E30  C02E  F030         	movff	i2Xor_check@xor_value,i2Xor_check@xor
  7240  001E34  C02F  F031         	movff	i2Xor_check@xor_value+1,i2Xor_check@xor+1
  7241                           
  7242                           ;zigbee.c: 510: return(xor);
  7243  001E38  C030  F02A         	movff	i2Xor_check@xor,?i2_Xor_check
  7244  001E3C  C031  F02B         	movff	i2Xor_check@xor+1,?i2_Xor_check+1
  7245  001E40  0012               	return		;funcret
  7246  001E42                     __end_ofi2_Xor_check:
  7247                           	opt stack 0
  7248                           tosu	equ	0xFFF
  7249                           tosh	equ	0xFFE
  7250                           tosl	equ	0xFFD
  7251                           pclatu	equ	0xFFB
  7252                           pclath	equ	0xFFA
  7253                           tblptru	equ	0xFF8
  7254                           tblptrh	equ	0xFF7
  7255                           tblptrl	equ	0xFF6
  7256                           tablat	equ	0xFF5
  7257                           prodh	equ	0xFF4
  7258                           prodl	equ	0xFF3
  7259                           intcon	equ	0xFF2
  7260                           intcon2	equ	0xFF1
  7261                           postinc0	equ	0xFEE
  7262                           fsr0h	equ	0xFEA
  7263                           fsr0l	equ	0xFE9
  7264                           wreg	equ	0xFE8
  7265                           indf1	equ	0xFE7
  7266                           postdec1	equ	0xFE5
  7267                           fsr1h	equ	0xFE2
  7268                           fsr1l	equ	0xFE1
  7269                           bsr	equ	0xFE0
  7270                           indf2	equ	0xFDF
  7271                           fsr2h	equ	0xFDA
  7272                           fsr2l	equ	0xFD9
  7273                           status	equ	0xFD8
  7274                           
  7275 ;; *************** function _read_RX_FIFO *****************
  7276 ;; Defined at:
  7277 ;;		line 10 in file "zigbee.c"
  7278 ;; Parameters:    Size  Location     Type
  7279 ;;		None
  7280 ;; Auto vars:     Size  Location     Type
  7281 ;;  i               1   15[COMRAM] unsigned char 
  7282 ;;  temp            1   14[COMRAM] unsigned char 
  7283 ;; Return value:  Size  Location     Type
  7284 ;;                  1    wreg      void 
  7285 ;; Registers used:
  7286 ;;		wreg, fsr2l, fsr2h, status,2, status,0, tblptrl, tblptrh, tblptru, prodl, prodh, cstack
  7287 ;; Tracked objects:
  7288 ;;		On entry : 0/0
  7289 ;;		On exit  : 0/0
  7290 ;;		Unchanged: 0/0
  7291 ;; Data sizes:     COMRAM   BANK0   BANK1   BANK2   BANK3   BANK4   BANK5   BANK6   BANK7   BANK8   BANK9  BANK10  BANK1
      +1  BANK12  BANK13  BANK14  BANK15
  7292 ;;      Params:         0       0       0       0       0       0       0       0       0       0       0       0       
      +0       0       0       0       0
  7293 ;;      Locals:         2       0       0       0       0       0       0       0       0       0       0       0       
      +0       0       0       0       0
  7294 ;;      Temps:          5       0       0       0       0       0       0       0       0       0       0       0       
      +0       0       0       0       0
  7295 ;;      Totals:         7       0       0       0       0       0       0       0       0       0       0       0       
      +0       0       0       0       0
  7296 ;;Total ram usage:        7 bytes
  7297 ;; Hardware stack levels used:    1
  7298 ;; Hardware stack levels required when called:    2
  7299 ;; This function calls:
  7300 ;;		_read_ZIGBEE_long
  7301 ;;		i2_write_ZIGBEE_short
  7302 ;; This function is called by:
  7303 ;;		_INTERRUPT_InterruptManagerHigh
  7304 ;; This function uses a non-reentrant model
  7305 ;;
  7306                           
  7307                           	psect	text54
  7308  001010                     __ptext54:
  7309                           	opt stack 0
  7310  001010                     _read_RX_FIFO:
  7311                           	opt stack 17
  7312                           
  7313                           ;zigbee.c: 12: unsigned char temp = 0;
  7314                           
  7315                           ;incstack = 0
  7316  001010  0E00               	movlw	0
  7317  001012  6E38               	movwf	read_RX_FIFO@temp,c
  7318                           
  7319                           ;zigbee.c: 13: unsigned char i = 0;
  7320  001014  0E00               	movlw	0
  7321  001016  6E39               	movwf	read_RX_FIFO@i,c
  7322                           
  7323                           ;zigbee.c: 15: temp=0;
  7324  001018  0E00               	movlw	0
  7325  00101A  6E38               	movwf	read_RX_FIFO@temp,c
  7326                           
  7327                           ;zigbee.c: 16: temp = temp | 0x04;
  7328  00101C  5038               	movf	read_RX_FIFO@temp,w,c
  7329  00101E  0904               	iorlw	4
  7330  001020  6E38               	movwf	read_RX_FIFO@temp,c
  7331                           
  7332                           ;zigbee.c: 17: write_ZIGBEE_short(0x39, temp);
  7333  001022  C038  F02C         	movff	read_RX_FIFO@temp,i2write_ZIGBEE_short@data_r
  7334  001026  0E39               	movlw	57
  7335  001028  ECB6  F010         	call	i2_write_ZIGBEE_short
  7336                           
  7337                           ;zigbee.c: 19: LENGTH=read_ZIGBEE_long(0x300);
  7338  00102C  0E03               	movlw	3
  7339  00102E  6E2D               	movwf	read_ZIGBEE_long@address+1,c
  7340  001030  0E00               	movlw	0
  7341  001032  6E2C               	movwf	read_ZIGBEE_long@address,c
  7342  001034  EC53  F00E         	call	_read_ZIGBEE_long	;wreg free
  7343  001038  6E28               	movwf	_LENGTH,c
  7344                           
  7345                           ;zigbee.c: 20: __nop();
  7346  00103A  F000               	nop	
  7347                           
  7348                           ;zigbee.c: 21: for(i=0; i<128; i++)
  7349  00103C  0E00               	movlw	0
  7350  00103E  6E39               	movwf	read_RX_FIFO@i,c
  7351  001040  0E7F               	movlw	127
  7352  001042  6439               	cpfsgt	read_RX_FIFO@i,c
  7353  001044  D001               	goto	i2l387
  7354  001046  D06A               	goto	i2u81_40
  7355  001048                     i2l387:
  7356                           
  7357                           ;zigbee.c: 22: {
  7358                           ;zigbee.c: 23: if(i < (1 + DATA_LENGHT + HEADER_LENGHT + 2 + 1 + 1))
  7359  001048  0E0E               	movlw	low _DATA_LENGHT
  7360  00104A  6EF6               	movwf	tblptrl,c
  7361  00104C                     	if	1	;There is more than 1 active tblptr byte
  7362  00104C  0E10               	movlw	high _DATA_LENGHT
  7363  00104E  6EF7               	movwf	tblptrh,c
  7364  001050                     	endif
  7365  001050                     	if	1	;There are 3 active tblptr bytes
  7366  001050  0E00               	movlw	low (_DATA_LENGHT shr (0+16))
  7367  001052  6EF8               	movwf	tblptru,c
  7368  001054                     	endif
  7369  001054  0008               	tblrd		*
  7370  001056  50F5               	movf	tablat,w,c
  7371  001058  6E33               	movwf	??_read_RX_FIFO& (0+255),c
  7372  00105A  6A34               	clrf	(??_read_RX_FIFO+1)& (0+255),c
  7373  00105C  0E0D               	movlw	low _HEADER_LENGHT
  7374  00105E  6EF6               	movwf	tblptrl,c
  7375  001060                     	if	1	;There is more than 1 active tblptr byte
  7376  001060  0E10               	movlw	high _HEADER_LENGHT
  7377  001062  6EF7               	movwf	tblptrh,c
  7378  001064                     	endif
  7379  001064                     	if	1	;There are 3 active tblptr bytes
  7380  001064  0E00               	movlw	low (_HEADER_LENGHT shr (0+16))
  7381  001066  6EF8               	movwf	tblptru,c
  7382  001068                     	endif
  7383  001068  0008               	tblrd		*
  7384  00106A  50F5               	movf	tablat,w,c
  7385  00106C  2633               	addwf	??_read_RX_FIFO,f,c
  7386  00106E  0E00               	movlw	0
  7387  001070  2234               	addwfc	??_read_RX_FIFO+1,f,c
  7388  001072  0E05               	movlw	5
  7389  001074  2633               	addwf	??_read_RX_FIFO,f,c
  7390  001076  0E00               	movlw	0
  7391  001078  2234               	addwfc	??_read_RX_FIFO+1,f,c
  7392  00107A  5039               	movf	read_RX_FIFO@i,w,c
  7393  00107C  6E35               	movwf	(??_read_RX_FIFO+2)& (0+255),c
  7394  00107E  6A36               	clrf	(??_read_RX_FIFO+3)& (0+255),c
  7395  001080  5033               	movf	??_read_RX_FIFO,w,c
  7396  001082  5C35               	subwf	??_read_RX_FIFO+2,w,c
  7397  001084  5036               	movf	??_read_RX_FIFO+3,w,c
  7398  001086  0A80               	xorlw	128
  7399  001088  6E37               	movwf	(??_read_RX_FIFO+4)& (0+255),c
  7400  00108A  5034               	movf	??_read_RX_FIFO+1,w,c
  7401  00108C  0A80               	xorlw	128
  7402  00108E  5837               	subwfb	(??_read_RX_FIFO+4)& (0+255),w,c
  7403  001090  B0D8               	btfsc	status,0,c
  7404  001092  D012               	goto	i2l389
  7405                           
  7406                           ;zigbee.c: 24: data_RX_FIFO[i] = read_ZIGBEE_long(address_RX_FIFO + i);
  7407  001094  5039               	movf	read_RX_FIFO@i,w,c
  7408  001096  0D01               	mullw	1
  7409  001098  0E00               	movlw	low _data_RX_FIFO
  7410  00109A  24F3               	addwf	prodl,w,c
  7411  00109C  6ED9               	movwf	fsr2l,c
  7412  00109E  0E01               	movlw	high _data_RX_FIFO
  7413  0010A0  20F4               	addwfc	prodh,w,c
  7414  0010A2  6EDA               	movwf	fsr2h,c
  7415  0010A4  5039               	movf	read_RX_FIFO@i,w,c
  7416  0010A6  0100               	movlb	0	; () banked
  7417  0010A8  25EC               	addwf	_address_RX_FIFO& (0+255),w,b
  7418  0010AA  6E2C               	movwf	read_ZIGBEE_long@address,c
  7419  0010AC  0E00               	movlw	0
  7420  0010AE  21ED               	addwfc	(_address_RX_FIFO+1)& (0+255),w,b
  7421  0010B0  6E2D               	movwf	read_ZIGBEE_long@address+1,c
  7422  0010B2  EC53  F00E         	call	_read_ZIGBEE_long	;wreg free
  7423  0010B6  6EDF               	movwf	indf2,c
  7424  0010B8                     i2l389:
  7425                           
  7426                           ;zigbee.c: 25: if(i >= (1 + DATA_LENGHT + HEADER_LENGHT + 2 + 1 + 1))
  7427  0010B8  0E0E               	movlw	low _DATA_LENGHT
  7428  0010BA  6EF6               	movwf	tblptrl,c
  7429  0010BC                     	if	1	;There is more than 1 active tblptr byte
  7430  0010BC  0E10               	movlw	high _DATA_LENGHT
  7431  0010BE  6EF7               	movwf	tblptrh,c
  7432  0010C0                     	endif
  7433  0010C0                     	if	1	;There are 3 active tblptr bytes
  7434  0010C0  0E00               	movlw	low (_DATA_LENGHT shr (0+16))
  7435  0010C2  6EF8               	movwf	tblptru,c
  7436  0010C4                     	endif
  7437  0010C4  0008               	tblrd		*
  7438  0010C6  50F5               	movf	tablat,w,c
  7439  0010C8  6E33               	movwf	??_read_RX_FIFO& (0+255),c
  7440  0010CA  6A34               	clrf	(??_read_RX_FIFO+1)& (0+255),c
  7441  0010CC  0E0D               	movlw	low _HEADER_LENGHT
  7442  0010CE  6EF6               	movwf	tblptrl,c
  7443  0010D0                     	if	1	;There is more than 1 active tblptr byte
  7444  0010D0  0E10               	movlw	high _HEADER_LENGHT
  7445  0010D2  6EF7               	movwf	tblptrh,c
  7446  0010D4                     	endif
  7447  0010D4                     	if	1	;There are 3 active tblptr bytes
  7448  0010D4  0E00               	movlw	low (_HEADER_LENGHT shr (0+16))
  7449  0010D6  6EF8               	movwf	tblptru,c
  7450  0010D8                     	endif
  7451  0010D8  0008               	tblrd		*
  7452  0010DA  50F5               	movf	tablat,w,c
  7453  0010DC  2633               	addwf	??_read_RX_FIFO,f,c
  7454  0010DE  0E00               	movlw	0
  7455  0010E0  2234               	addwfc	??_read_RX_FIFO+1,f,c
  7456  0010E2  0E05               	movlw	5
  7457  0010E4  2633               	addwf	??_read_RX_FIFO,f,c
  7458  0010E6  0E00               	movlw	0
  7459  0010E8  2234               	addwfc	??_read_RX_FIFO+1,f,c
  7460  0010EA  5039               	movf	read_RX_FIFO@i,w,c
  7461  0010EC  6E35               	movwf	(??_read_RX_FIFO+2)& (0+255),c
  7462  0010EE  6A36               	clrf	(??_read_RX_FIFO+3)& (0+255),c
  7463  0010F0  5033               	movf	??_read_RX_FIFO,w,c
  7464  0010F2  5C35               	subwf	??_read_RX_FIFO+2,w,c
  7465  0010F4  5036               	movf	??_read_RX_FIFO+3,w,c
  7466  0010F6  0A80               	xorlw	128
  7467  0010F8  6E37               	movwf	(??_read_RX_FIFO+4)& (0+255),c
  7468  0010FA  5034               	movf	??_read_RX_FIFO+1,w,c
  7469  0010FC  0A80               	xorlw	128
  7470  0010FE  5837               	subwfb	(??_read_RX_FIFO+4)& (0+255),w,c
  7471  001100  A0D8               	btfss	status,0,c
  7472  001102  D00A               	goto	i2l390
  7473                           
  7474                           ;zigbee.c: 26: lost_data = read_ZIGBEE_long(address_RX_FIFO + i);
  7475  001104  5039               	movf	read_RX_FIFO@i,w,c
  7476  001106  0100               	movlb	0	; () banked
  7477  001108  25EC               	addwf	_address_RX_FIFO& (0+255),w,b
  7478  00110A  6E2C               	movwf	read_ZIGBEE_long@address,c
  7479  00110C  0E00               	movlw	0
  7480  00110E  21ED               	addwfc	(_address_RX_FIFO+1)& (0+255),w,b
  7481  001110  6E2D               	movwf	read_ZIGBEE_long@address+1,c
  7482  001112  EC53  F00E         	call	_read_ZIGBEE_long	;wreg free
  7483  001116  6E22               	movwf	_lost_data,c
  7484  001118                     i2l390:
  7485  001118  2A39               	incf	read_RX_FIFO@i,f,c
  7486  00111A  D792               	goto	L1
  7487  00111C                     i2u81_40:
  7488                           
  7489                           ;zigbee.c: 27: }
  7490                           ;zigbee.c: 29: DATA_RX[0] = data_RX_FIFO[HEADER_LENGHT + 1];
  7491  00111C  0E0D               	movlw	low _HEADER_LENGHT
  7492  00111E  6EF6               	movwf	tblptrl,c
  7493  001120                     	if	1	;There is more than 1 active tblptr byte
  7494  001120  0E10               	movlw	high _HEADER_LENGHT
  7495  001122  6EF7               	movwf	tblptrh,c
  7496  001124                     	endif
  7497  001124                     	if	1	;There are 3 active tblptr bytes
  7498  001124  0E00               	movlw	low (_HEADER_LENGHT shr (0+16))
  7499  001126  6EF8               	movwf	tblptru,c
  7500  001128                     	endif
  7501  001128  0008               	tblrd		*
  7502  00112A  50F5               	movf	tablat,w,c
  7503  00112C  6E33               	movwf	??_read_RX_FIFO& (0+255),c
  7504  00112E  6A34               	clrf	(??_read_RX_FIFO+1)& (0+255),c
  7505  001130  0E01               	movlw	1
  7506  001132  2633               	addwf	??_read_RX_FIFO,f,c
  7507  001134  0E00               	movlw	0
  7508  001136  2234               	addwfc	??_read_RX_FIFO+1,f,c
  7509  001138  0E00               	movlw	low _data_RX_FIFO
  7510  00113A  2433               	addwf	??_read_RX_FIFO,w,c
  7511  00113C  6ED9               	movwf	fsr2l,c
  7512  00113E  0E01               	movlw	high _data_RX_FIFO
  7513  001140  2034               	addwfc	??_read_RX_FIFO+1,w,c
  7514  001142  6EDA               	movwf	fsr2h,c
  7515  001144  50DF               	movf	indf2,w,c
  7516  001146  0100               	movlb	0	; () banked
  7517  001148  6FB3               	movwf	_DATA_RX& (0+255),b
  7518                           
  7519                           ;zigbee.c: 30: DATA_RX[1] = data_RX_FIFO[HEADER_LENGHT + 2];
  7520  00114A  0E0D               	movlw	low _HEADER_LENGHT
  7521  00114C  6EF6               	movwf	tblptrl,c
  7522  00114E                     	if	1	;There is more than 1 active tblptr byte
  7523  00114E  0E10               	movlw	high _HEADER_LENGHT
  7524  001150  6EF7               	movwf	tblptrh,c
  7525  001152                     	endif
  7526  001152                     	if	1	;There are 3 active tblptr bytes
  7527  001152  0E00               	movlw	low (_HEADER_LENGHT shr (0+16))
  7528  001154  6EF8               	movwf	tblptru,c
  7529  001156                     	endif
  7530  001156  0008               	tblrd		*
  7531  001158  50F5               	movf	tablat,w,c
  7532  00115A  6E33               	movwf	??_read_RX_FIFO& (0+255),c
  7533  00115C  6A34               	clrf	(??_read_RX_FIFO+1)& (0+255),c
  7534  00115E  0E02               	movlw	2
  7535  001160  2633               	addwf	??_read_RX_FIFO,f,c
  7536  001162  0E00               	movlw	0
  7537  001164  2234               	addwfc	??_read_RX_FIFO+1,f,c
  7538  001166  0E00               	movlw	low _data_RX_FIFO
  7539  001168  2433               	addwf	??_read_RX_FIFO,w,c
  7540  00116A  6ED9               	movwf	fsr2l,c
  7541  00116C  0E01               	movlw	high _data_RX_FIFO
  7542  00116E  2034               	addwfc	??_read_RX_FIFO+1,w,c
  7543  001170  6EDA               	movwf	fsr2h,c
  7544  001172  50DF               	movf	indf2,w,c
  7545  001174  6FB4               	movwf	(_DATA_RX+1)& (0+255),b
  7546                           
  7547                           ;zigbee.c: 31: DATA_RX[2] = data_RX_FIFO[HEADER_LENGHT + 3];
  7548  001176  0E0D               	movlw	low _HEADER_LENGHT
  7549  001178  6EF6               	movwf	tblptrl,c
  7550  00117A                     	if	1	;There is more than 1 active tblptr byte
  7551  00117A  0E10               	movlw	high _HEADER_LENGHT
  7552  00117C  6EF7               	movwf	tblptrh,c
  7553  00117E                     	endif
  7554  00117E                     	if	1	;There are 3 active tblptr bytes
  7555  00117E  0E00               	movlw	low (_HEADER_LENGHT shr (0+16))
  7556  001180  6EF8               	movwf	tblptru,c
  7557  001182                     	endif
  7558  001182  0008               	tblrd		*
  7559  001184  50F5               	movf	tablat,w,c
  7560  001186  6E33               	movwf	??_read_RX_FIFO& (0+255),c
  7561  001188  6A34               	clrf	(??_read_RX_FIFO+1)& (0+255),c
  7562  00118A  0E03               	movlw	3
  7563  00118C  2633               	addwf	??_read_RX_FIFO,f,c
  7564  00118E  0E00               	movlw	0
  7565  001190  2234               	addwfc	??_read_RX_FIFO+1,f,c
  7566  001192  0E00               	movlw	low _data_RX_FIFO
  7567  001194  2433               	addwf	??_read_RX_FIFO,w,c
  7568  001196  6ED9               	movwf	fsr2l,c
  7569  001198  0E01               	movlw	high _data_RX_FIFO
  7570  00119A  2034               	addwfc	??_read_RX_FIFO+1,w,c
  7571  00119C  6EDA               	movwf	fsr2h,c
  7572  00119E  50DF               	movf	indf2,w,c
  7573  0011A0  6FB5               	movwf	(_DATA_RX+2)& (0+255),b
  7574                           
  7575                           ;zigbee.c: 33: DATA_RX[3] = data_RX_FIFO[HEADER_LENGHT + 4];
  7576  0011A2  0E0D               	movlw	low _HEADER_LENGHT
  7577  0011A4  6EF6               	movwf	tblptrl,c
  7578  0011A6                     	if	1	;There is more than 1 active tblptr byte
  7579  0011A6  0E10               	movlw	high _HEADER_LENGHT
  7580  0011A8  6EF7               	movwf	tblptrh,c
  7581  0011AA                     	endif
  7582  0011AA                     	if	1	;There are 3 active tblptr bytes
  7583  0011AA  0E00               	movlw	low (_HEADER_LENGHT shr (0+16))
  7584  0011AC  6EF8               	movwf	tblptru,c
  7585  0011AE                     	endif
  7586  0011AE  0008               	tblrd		*
  7587  0011B0  50F5               	movf	tablat,w,c
  7588  0011B2  6E33               	movwf	??_read_RX_FIFO& (0+255),c
  7589  0011B4  6A34               	clrf	(??_read_RX_FIFO+1)& (0+255),c
  7590  0011B6  0E04               	movlw	4
  7591  0011B8  2633               	addwf	??_read_RX_FIFO,f,c
  7592  0011BA  0E00               	movlw	0
  7593  0011BC  2234               	addwfc	??_read_RX_FIFO+1,f,c
  7594  0011BE  0E00               	movlw	low _data_RX_FIFO
  7595  0011C0  2433               	addwf	??_read_RX_FIFO,w,c
  7596  0011C2  6ED9               	movwf	fsr2l,c
  7597  0011C4  0E01               	movlw	high _data_RX_FIFO
  7598  0011C6  2034               	addwfc	??_read_RX_FIFO+1,w,c
  7599  0011C8  6EDA               	movwf	fsr2h,c
  7600  0011CA  50DF               	movf	indf2,w,c
  7601  0011CC  6FB6               	movwf	(_DATA_RX+3)& (0+255),b
  7602                           
  7603                           ;zigbee.c: 34: DATA_RX[4] = data_RX_FIFO[HEADER_LENGHT + 5];
  7604  0011CE  0E0D               	movlw	low _HEADER_LENGHT
  7605  0011D0  6EF6               	movwf	tblptrl,c
  7606  0011D2                     	if	1	;There is more than 1 active tblptr byte
  7607  0011D2  0E10               	movlw	high _HEADER_LENGHT
  7608  0011D4  6EF7               	movwf	tblptrh,c
  7609  0011D6                     	endif
  7610  0011D6                     	if	1	;There are 3 active tblptr bytes
  7611  0011D6  0E00               	movlw	low (_HEADER_LENGHT shr (0+16))
  7612  0011D8  6EF8               	movwf	tblptru,c
  7613  0011DA                     	endif
  7614  0011DA  0008               	tblrd		*
  7615  0011DC  50F5               	movf	tablat,w,c
  7616  0011DE  6E33               	movwf	??_read_RX_FIFO& (0+255),c
  7617  0011E0  6A34               	clrf	(??_read_RX_FIFO+1)& (0+255),c
  7618  0011E2  0E05               	movlw	5
  7619  0011E4  2633               	addwf	??_read_RX_FIFO,f,c
  7620  0011E6  0E00               	movlw	0
  7621  0011E8  2234               	addwfc	??_read_RX_FIFO+1,f,c
  7622  0011EA  0E00               	movlw	low _data_RX_FIFO
  7623  0011EC  2433               	addwf	??_read_RX_FIFO,w,c
  7624  0011EE  6ED9               	movwf	fsr2l,c
  7625  0011F0  0E01               	movlw	high _data_RX_FIFO
  7626  0011F2  2034               	addwfc	??_read_RX_FIFO+1,w,c
  7627  0011F4  6EDA               	movwf	fsr2h,c
  7628  0011F6  50DF               	movf	indf2,w,c
  7629  0011F8  6FB7               	movwf	(_DATA_RX+4)& (0+255),b
  7630                           
  7631                           ;zigbee.c: 38: LQI = data_RX_FIFO[1 + HEADER_LENGHT + DATA_LENGHT + 2];
  7632  0011FA  0E0D               	movlw	low _HEADER_LENGHT
  7633  0011FC  6EF6               	movwf	tblptrl,c
  7634  0011FE                     	if	1	;There is more than 1 active tblptr byte
  7635  0011FE  0E10               	movlw	high _HEADER_LENGHT
  7636  001200  6EF7               	movwf	tblptrh,c
  7637  001202                     	endif
  7638  001202                     	if	1	;There are 3 active tblptr bytes
  7639  001202  0E00               	movlw	low (_HEADER_LENGHT shr (0+16))
  7640  001204  6EF8               	movwf	tblptru,c
  7641  001206                     	endif
  7642  001206  0008               	tblrd		*
  7643  001208  50F5               	movf	tablat,w,c
  7644  00120A  6E33               	movwf	??_read_RX_FIFO& (0+255),c
  7645  00120C  6A34               	clrf	(??_read_RX_FIFO+1)& (0+255),c
  7646  00120E  0E0E               	movlw	low _DATA_LENGHT
  7647  001210  6EF6               	movwf	tblptrl,c
  7648  001212                     	if	1	;There is more than 1 active tblptr byte
  7649  001212  0E10               	movlw	high _DATA_LENGHT
  7650  001214  6EF7               	movwf	tblptrh,c
  7651  001216                     	endif
  7652  001216                     	if	1	;There are 3 active tblptr bytes
  7653  001216  0E00               	movlw	low (_DATA_LENGHT shr (0+16))
  7654  001218  6EF8               	movwf	tblptru,c
  7655  00121A                     	endif
  7656  00121A  0008               	tblrd		*
  7657  00121C  50F5               	movf	tablat,w,c
  7658  00121E  2633               	addwf	??_read_RX_FIFO,f,c
  7659  001220  0E00               	movlw	0
  7660  001222  2234               	addwfc	??_read_RX_FIFO+1,f,c
  7661  001224  0E03               	movlw	3
  7662  001226  2633               	addwf	??_read_RX_FIFO,f,c
  7663  001228  0E00               	movlw	0
  7664  00122A  2234               	addwfc	??_read_RX_FIFO+1,f,c
  7665  00122C  0E00               	movlw	low _data_RX_FIFO
  7666  00122E  2433               	addwf	??_read_RX_FIFO,w,c
  7667  001230  6ED9               	movwf	fsr2l,c
  7668  001232  0E01               	movlw	high _data_RX_FIFO
  7669  001234  2034               	addwfc	??_read_RX_FIFO+1,w,c
  7670  001236  6EDA               	movwf	fsr2h,c
  7671  001238  50DF               	movf	indf2,w,c
  7672  00123A  6E24               	movwf	_LQI,c
  7673                           
  7674                           ;zigbee.c: 39: RSSI2 = data_RX_FIFO[1 + HEADER_LENGHT + DATA_LENGHT + 3];
  7675  00123C  0E0D               	movlw	low _HEADER_LENGHT
  7676  00123E  6EF6               	movwf	tblptrl,c
  7677  001240                     	if	1	;There is more than 1 active tblptr byte
  7678  001240  0E10               	movlw	high _HEADER_LENGHT
  7679  001242  6EF7               	movwf	tblptrh,c
  7680  001244                     	endif
  7681  001244                     	if	1	;There are 3 active tblptr bytes
  7682  001244  0E00               	movlw	low (_HEADER_LENGHT shr (0+16))
  7683  001246  6EF8               	movwf	tblptru,c
  7684  001248                     	endif
  7685  001248  0008               	tblrd		*
  7686  00124A  50F5               	movf	tablat,w,c
  7687  00124C  6E33               	movwf	??_read_RX_FIFO& (0+255),c
  7688  00124E  6A34               	clrf	(??_read_RX_FIFO+1)& (0+255),c
  7689  001250  0E0E               	movlw	low _DATA_LENGHT
  7690  001252  6EF6               	movwf	tblptrl,c
  7691  001254                     	if	1	;There is more than 1 active tblptr byte
  7692  001254  0E10               	movlw	high _DATA_LENGHT
  7693  001256  6EF7               	movwf	tblptrh,c
  7694  001258                     	endif
  7695  001258                     	if	1	;There are 3 active tblptr bytes
  7696  001258  0E00               	movlw	low (_DATA_LENGHT shr (0+16))
  7697  00125A  6EF8               	movwf	tblptru,c
  7698  00125C                     	endif
  7699  00125C  0008               	tblrd		*
  7700  00125E  50F5               	movf	tablat,w,c
  7701  001260  2633               	addwf	??_read_RX_FIFO,f,c
  7702  001262  0E00               	movlw	0
  7703  001264  2234               	addwfc	??_read_RX_FIFO+1,f,c
  7704  001266  0E04               	movlw	4
  7705  001268  2633               	addwf	??_read_RX_FIFO,f,c
  7706  00126A  0E00               	movlw	0
  7707  00126C  2234               	addwfc	??_read_RX_FIFO+1,f,c
  7708  00126E  0E00               	movlw	low _data_RX_FIFO
  7709  001270  2433               	addwf	??_read_RX_FIFO,w,c
  7710  001272  6ED9               	movwf	fsr2l,c
  7711  001274  0E01               	movlw	high _data_RX_FIFO
  7712  001276  2034               	addwfc	??_read_RX_FIFO+1,w,c
  7713  001278  6EDA               	movwf	fsr2h,c
  7714  00127A  50DF               	movf	indf2,w,c
  7715  00127C  6E23               	movwf	_RSSI2,c
  7716                           
  7717                           ; BSR set to: 0
  7718                           ;zigbee.c: 41: temp=0;
  7719  00127E  0E00               	movlw	0
  7720  001280  6E38               	movwf	read_RX_FIFO@temp,c
  7721                           
  7722                           ; BSR set to: 0
  7723                           ;zigbee.c: 42: temp = temp & (!0x04);
  7724  001282  0E00               	movlw	0
  7725  001284  6E38               	movwf	read_RX_FIFO@temp,c
  7726                           
  7727                           ; BSR set to: 0
  7728                           ;zigbee.c: 43: write_ZIGBEE_short(0x39, temp);
  7729  001286  C038  F02C         	movff	read_RX_FIFO@temp,i2write_ZIGBEE_short@data_r
  7730  00128A  0E39               	movlw	57
  7731  00128C  ECB6  F010         	call	i2_write_ZIGBEE_short
  7732  001290  0012               	return		;funcret
  7733  001292                     __end_of_read_RX_FIFO:
  7734                           	opt stack 0
  7735                           tosu	equ	0xFFF
  7736                           tosh	equ	0xFFE
  7737                           tosl	equ	0xFFD
  7738                           pclatu	equ	0xFFB
  7739                           pclath	equ	0xFFA
  7740                           tblptru	equ	0xFF8
  7741                           tblptrh	equ	0xFF7
  7742                           tblptrl	equ	0xFF6
  7743                           tablat	equ	0xFF5
  7744                           prodh	equ	0xFF4
  7745                           prodl	equ	0xFF3
  7746                           intcon	equ	0xFF2
  7747                           intcon2	equ	0xFF1
  7748                           postinc0	equ	0xFEE
  7749                           fsr0h	equ	0xFEA
  7750                           fsr0l	equ	0xFE9
  7751                           wreg	equ	0xFE8
  7752                           indf1	equ	0xFE7
  7753                           postdec1	equ	0xFE5
  7754                           fsr1h	equ	0xFE2
  7755                           fsr1l	equ	0xFE1
  7756                           bsr	equ	0xFE0
  7757                           indf2	equ	0xFDF
  7758                           fsr2h	equ	0xFDA
  7759                           fsr2l	equ	0xFD9
  7760                           status	equ	0xFD8
  7761                           
  7762 ;; *************** function i2_write_ZIGBEE_short *****************
  7763 ;; Defined at:
  7764 ;;		line 396 in file "zigbee.c"
  7765 ;; Parameters:    Size  Location     Type
  7766 ;;  address         1    wreg     unsigned char 
  7767 ;;  data_r          1    2[COMRAM] unsigned char 
  7768 ;; Auto vars:     Size  Location     Type
  7769 ;;  address         1    3[COMRAM] unsigned char 
  7770 ;; Return value:  Size  Location     Type
  7771 ;;                  1    wreg      void 
  7772 ;; Registers used:
  7773 ;;		wreg, status,2, status,0, cstack
  7774 ;; Tracked objects:
  7775 ;;		On entry : 0/0
  7776 ;;		On exit  : 0/0
  7777 ;;		Unchanged: 0/0
  7778 ;; Data sizes:     COMRAM   BANK0   BANK1   BANK2   BANK3   BANK4   BANK5   BANK6   BANK7   BANK8   BANK9  BANK10  BANK1
      +1  BANK12  BANK13  BANK14  BANK15
  7779 ;;      Params:         1       0       0       0       0       0       0       0       0       0       0       0       
      +0       0       0       0       0
  7780 ;;      Locals:         1       0       0       0       0       0       0       0       0       0       0       0       
      +0       0       0       0       0
  7781 ;;      Temps:          0       0       0       0       0       0       0       0       0       0       0       0       
      +0       0       0       0       0
  7782 ;;      Totals:         2       0       0       0       0       0       0       0       0       0       0       0       
      +0       0       0       0       0
  7783 ;;Total ram usage:        2 bytes
  7784 ;; Hardware stack levels used:    1
  7785 ;; Hardware stack levels required when called:    1
  7786 ;; This function calls:
  7787 ;;		i2_SPI_Write
  7788 ;; This function is called by:
  7789 ;;		_read_RX_FIFO
  7790 ;; This function uses a non-reentrant model
  7791 ;;
  7792                           
  7793                           	psect	text55
  7794  00216C                     __ptext55:
  7795                           	opt stack 0
  7796  00216C                     i2_write_ZIGBEE_short:
  7797                           	opt stack 17
  7798                           
  7799                           ;incstack = 0
  7800                           ;i2write_ZIGBEE_short@address stored from wreg
  7801  00216C  6E2D               	movwf	i2write_ZIGBEE_short@address,c
  7802                           
  7803                           ;zigbee.c: 397: PORTCbits.RC0=0;
  7804  00216E  9082               	bcf	3970,0,c	;volatile
  7805                           
  7806                           ;zigbee.c: 398: address = ((address << 1) & 0b01111111) | 0x01;
  7807  002170  502D               	movf	i2write_ZIGBEE_short@address,w,c
  7808  002172  242D               	addwf	i2write_ZIGBEE_short@address,w,c
  7809  002174  0B7F               	andlw	127
  7810  002176  0901               	iorlw	1
  7811  002178  6E2D               	movwf	i2write_ZIGBEE_short@address,c
  7812                           
  7813                           ;zigbee.c: 399: SPI_Write(address);
  7814  00217A  502D               	movf	i2write_ZIGBEE_short@address,w,c
  7815  00217C  EC6F  F011         	call	i2_SPI_Write
  7816                           
  7817                           ;zigbee.c: 400: SPI_Write(data_r);
  7818  002180  502C               	movf	i2write_ZIGBEE_short@data_r,w,c
  7819  002182  EC6F  F011         	call	i2_SPI_Write
  7820                           
  7821                           ;zigbee.c: 401: PORTCbits.RC0=1;
  7822  002186  8082               	bsf	3970,0,c	;volatile
  7823  002188  0012               	return		;funcret
  7824  00218A                     __end_ofi2_write_ZIGBEE_short:
  7825                           	opt stack 0
  7826                           tosu	equ	0xFFF
  7827                           tosh	equ	0xFFE
  7828                           tosl	equ	0xFFD
  7829                           pclatu	equ	0xFFB
  7830                           pclath	equ	0xFFA
  7831                           tblptru	equ	0xFF8
  7832                           tblptrh	equ	0xFF7
  7833                           tblptrl	equ	0xFF6
  7834                           tablat	equ	0xFF5
  7835                           prodh	equ	0xFF4
  7836                           prodl	equ	0xFF3
  7837                           intcon	equ	0xFF2
  7838                           intcon2	equ	0xFF1
  7839                           postinc0	equ	0xFEE
  7840                           fsr0h	equ	0xFEA
  7841                           fsr0l	equ	0xFE9
  7842                           wreg	equ	0xFE8
  7843                           indf1	equ	0xFE7
  7844                           postdec1	equ	0xFE5
  7845                           fsr1h	equ	0xFE2
  7846                           fsr1l	equ	0xFE1
  7847                           bsr	equ	0xFE0
  7848                           indf2	equ	0xFDF
  7849                           fsr2h	equ	0xFDA
  7850                           fsr2l	equ	0xFD9
  7851                           status	equ	0xFD8
  7852                           
  7853 ;; *************** function _read_ZIGBEE_long *****************
  7854 ;; Defined at:
  7855 ;;		line 425 in file "zigbee.c"
  7856 ;; Parameters:    Size  Location     Type
  7857 ;;  address         2    2[COMRAM] unsigned int 
  7858 ;; Auto vars:     Size  Location     Type
  7859 ;;  address_low     1    8[COMRAM] unsigned char 
  7860 ;;  address_high    1    7[COMRAM] unsigned char 
  7861 ;;  data_r          1    6[COMRAM] unsigned char 
  7862 ;; Return value:  Size  Location     Type
  7863 ;;                  1    wreg      unsigned char 
  7864 ;; Registers used:
  7865 ;;		wreg, status,2, status,0, cstack
  7866 ;; Tracked objects:
  7867 ;;		On entry : 0/0
  7868 ;;		On exit  : 0/0
  7869 ;;		Unchanged: 0/0
  7870 ;; Data sizes:     COMRAM   BANK0   BANK1   BANK2   BANK3   BANK4   BANK5   BANK6   BANK7   BANK8   BANK9  BANK10  BANK1
      +1  BANK12  BANK13  BANK14  BANK15
  7871 ;;      Params:         2       0       0       0       0       0       0       0       0       0       0       0       
      +0       0       0       0       0
  7872 ;;      Locals:         3       0       0       0       0       0       0       0       0       0       0       0       
      +0       0       0       0       0
  7873 ;;      Temps:          2       0       0       0       0       0       0       0       0       0       0       0       
      +0       0       0       0       0
  7874 ;;      Totals:         7       0       0       0       0       0       0       0       0       0       0       0       
      +0       0       0       0       0
  7875 ;;Total ram usage:        7 bytes
  7876 ;; Hardware stack levels used:    1
  7877 ;; Hardware stack levels required when called:    1
  7878 ;; This function calls:
  7879 ;;		i2_SPI_Read
  7880 ;;		i2_SPI_Write
  7881 ;; This function is called by:
  7882 ;;		_read_RX_FIFO
  7883 ;; This function uses a non-reentrant model
  7884 ;;
  7885                           
  7886                           	psect	text56
  7887  001CA6                     __ptext56:
  7888                           	opt stack 0
  7889  001CA6                     _read_ZIGBEE_long:
  7890                           	opt stack 17
  7891                           
  7892                           ;zigbee.c: 426: unsigned char data_r = 0;
  7893                           
  7894                           ;incstack = 0
  7895  001CA6  0E00               	movlw	0
  7896  001CA8  6E30               	movwf	read_ZIGBEE_long@data_r,c
  7897                           
  7898                           ;zigbee.c: 427: unsigned char address_high = 0, address_low = 0;
  7899  001CAA  0E00               	movlw	0
  7900  001CAC  6E31               	movwf	read_ZIGBEE_long@address_high,c
  7901  001CAE  0E00               	movlw	0
  7902  001CB0  6E32               	movwf	read_ZIGBEE_long@address_low,c
  7903                           
  7904                           ;zigbee.c: 430: PORTCbits.RC0=0;
  7905  001CB2  9082               	bcf	3970,0,c	;volatile
  7906                           
  7907                           ;zigbee.c: 431: address_high = ((unsigned char)(address >> 3) & 0b01111111) | 0x80;
  7908  001CB4  C02C  F02E         	movff	read_ZIGBEE_long@address,??_read_ZIGBEE_long
  7909  001CB8  C02D  F02F         	movff	read_ZIGBEE_long@address+1,??_read_ZIGBEE_long+1
  7910  001CBC  90D8               	bcf	status,0,c
  7911  001CBE  322F               	rrcf	??_read_ZIGBEE_long+1,f,c
  7912  001CC0  322E               	rrcf	??_read_ZIGBEE_long,f,c
  7913  001CC2  90D8               	bcf	status,0,c
  7914  001CC4  322F               	rrcf	??_read_ZIGBEE_long+1,f,c
  7915  001CC6  322E               	rrcf	??_read_ZIGBEE_long,f,c
  7916  001CC8  90D8               	bcf	status,0,c
  7917  001CCA  322F               	rrcf	??_read_ZIGBEE_long+1,f,c
  7918  001CCC  322E               	rrcf	??_read_ZIGBEE_long,f,c
  7919  001CCE  502E               	movf	??_read_ZIGBEE_long,w,c
  7920  001CD0  0B7F               	andlw	127
  7921  001CD2  0980               	iorlw	128
  7922  001CD4  6E31               	movwf	read_ZIGBEE_long@address_high,c
  7923                           
  7924                           ;zigbee.c: 432: address_low = ((unsigned char)(address << 5) & 0b11100000);
  7925  001CD6  382C               	swapf	read_ZIGBEE_long@address,w,c
  7926  001CD8  46E8               	rlncf	wreg,f,c
  7927  001CDA  0BE0               	andlw	224
  7928  001CDC  0BE0               	andlw	224
  7929  001CDE  6E32               	movwf	read_ZIGBEE_long@address_low,c
  7930                           
  7931                           ;zigbee.c: 433: SPI_Write(address_high);
  7932  001CE0  5031               	movf	read_ZIGBEE_long@address_high,w,c
  7933  001CE2  EC6F  F011         	call	i2_SPI_Write
  7934                           
  7935                           ;zigbee.c: 434: SPI_Write(address_low);
  7936  001CE6  5032               	movf	read_ZIGBEE_long@address_low,w,c
  7937  001CE8  EC6F  F011         	call	i2_SPI_Write
  7938                           
  7939                           ;zigbee.c: 435: data_r = SPI_Read();
  7940  001CEC  EC77  F011         	call	i2_SPI_Read	;wreg free
  7941  001CF0  6E30               	movwf	read_ZIGBEE_long@data_r,c
  7942                           
  7943                           ;zigbee.c: 436: PORTCbits.RC0=1;
  7944  001CF2  8082               	bsf	3970,0,c	;volatile
  7945                           
  7946                           ;zigbee.c: 437: return data_r;
  7947  001CF4  5030               	movf	read_ZIGBEE_long@data_r,w,c
  7948  001CF6  0012               	return	
  7949  001CF8                     __end_of_read_ZIGBEE_long:
  7950                           	opt stack 0
  7951                           tosu	equ	0xFFF
  7952                           tosh	equ	0xFFE
  7953                           tosl	equ	0xFFD
  7954                           pclatu	equ	0xFFB
  7955                           pclath	equ	0xFFA
  7956                           tblptru	equ	0xFF8
  7957                           tblptrh	equ	0xFF7
  7958                           tblptrl	equ	0xFF6
  7959                           tablat	equ	0xFF5
  7960                           prodh	equ	0xFF4
  7961                           prodl	equ	0xFF3
  7962                           intcon	equ	0xFF2
  7963                           intcon2	equ	0xFF1
  7964                           postinc0	equ	0xFEE
  7965                           fsr0h	equ	0xFEA
  7966                           fsr0l	equ	0xFE9
  7967                           wreg	equ	0xFE8
  7968                           indf1	equ	0xFE7
  7969                           postdec1	equ	0xFE5
  7970                           fsr1h	equ	0xFE2
  7971                           fsr1l	equ	0xFE1
  7972                           bsr	equ	0xFE0
  7973                           indf2	equ	0xFDF
  7974                           fsr2h	equ	0xFDA
  7975                           fsr2l	equ	0xFD9
  7976                           status	equ	0xFD8
  7977                           
  7978 ;; *************** function i2_SPI_Write *****************
  7979 ;; Defined at:
  7980 ;;		line 457 in file "zigbee.c"
  7981 ;; Parameters:    Size  Location     Type
  7982 ;;  command         1    wreg     unsigned char 
  7983 ;; Auto vars:     Size  Location     Type
  7984 ;;  command         1    1[COMRAM] unsigned char 
  7985 ;;  SPI_Write       1    0[COMRAM] unsigned char 
  7986 ;; Return value:  Size  Location     Type
  7987 ;;                  1    wreg      void 
  7988 ;; Registers used:
  7989 ;;		wreg
  7990 ;; Tracked objects:
  7991 ;;		On entry : 0/0
  7992 ;;		On exit  : 0/0
  7993 ;;		Unchanged: 0/0
  7994 ;; Data sizes:     COMRAM   BANK0   BANK1   BANK2   BANK3   BANK4   BANK5   BANK6   BANK7   BANK8   BANK9  BANK10  BANK1
      +1  BANK12  BANK13  BANK14  BANK15
  7995 ;;      Params:         0       0       0       0       0       0       0       0       0       0       0       0       
      +0       0       0       0       0
  7996 ;;      Locals:         2       0       0       0       0       0       0       0       0       0       0       0       
      +0       0       0       0       0
  7997 ;;      Temps:          0       0       0       0       0       0       0       0       0       0       0       0       
      +0       0       0       0       0
  7998 ;;      Totals:         2       0       0       0       0       0       0       0       0       0       0       0       
      +0       0       0       0       0
  7999 ;;Total ram usage:        2 bytes
  8000 ;; Hardware stack levels used:    1
  8001 ;; This function calls:
  8002 ;;		Nothing
  8003 ;; This function is called by:
  8004 ;;		_read_ZIGBEE_long
  8005 ;;		i2_write_ZIGBEE_short
  8006 ;;		i2_read_ZIGBEE_short
  8007 ;; This function uses a non-reentrant model
  8008 ;;
  8009                           
  8010                           	psect	text57
  8011  0022DE                     __ptext57:
  8012                           	opt stack 0
  8013  0022DE                     i2_SPI_Write:
  8014                           	opt stack 18
  8015                           
  8016                           ;incstack = 0
  8017                           ;i2SPI_Write@command stored from wreg
  8018  0022DE  6E2B               	movwf	i2SPI_Write@command,c
  8019                           
  8020                           ;zigbee.c: 458: unsigned char response;
  8021                           ;zigbee.c: 459: SSP1BUF = command;
  8022  0022E0  C02B  FFC9         	movff	i2SPI_Write@command,4041	;volatile
  8023  0022E4  A0C7               	btfss	4039,0,c	;volatile
  8024  0022E6  D7FE               	goto	i2l527
  8025                           
  8026                           ;zigbee.c: 461: response = SSP1BUF;
  8027  0022E8  CFC9 F02A          	movff	4041,i2SPI_Write@response	;volatile
  8028  0022EC  0012               	return		;funcret
  8029  0022EE                     __end_ofi2_SPI_Write:
  8030                           	opt stack 0
  8031                           tosu	equ	0xFFF
  8032                           tosh	equ	0xFFE
  8033                           tosl	equ	0xFFD
  8034                           pclatu	equ	0xFFB
  8035                           pclath	equ	0xFFA
  8036                           tblptru	equ	0xFF8
  8037                           tblptrh	equ	0xFF7
  8038                           tblptrl	equ	0xFF6
  8039                           tablat	equ	0xFF5
  8040                           prodh	equ	0xFF4
  8041                           prodl	equ	0xFF3
  8042                           intcon	equ	0xFF2
  8043                           intcon2	equ	0xFF1
  8044                           postinc0	equ	0xFEE
  8045                           fsr0h	equ	0xFEA
  8046                           fsr0l	equ	0xFE9
  8047                           wreg	equ	0xFE8
  8048                           indf1	equ	0xFE7
  8049                           postdec1	equ	0xFE5
  8050                           fsr1h	equ	0xFE2
  8051                           fsr1l	equ	0xFE1
  8052                           bsr	equ	0xFE0
  8053                           indf2	equ	0xFDF
  8054                           fsr2h	equ	0xFDA
  8055                           fsr2l	equ	0xFD9
  8056                           status	equ	0xFD8
  8057                           
  8058 ;; *************** function i2_SPI_Read *****************
  8059 ;; Defined at:
  8060 ;;		line 463 in file "zigbee.c"
  8061 ;; Parameters:    Size  Location     Type
  8062 ;;		None
  8063 ;; Auto vars:     Size  Location     Type
  8064 ;;  SPI_Read        1    0[COMRAM] unsigned char 
  8065 ;; Return value:  Size  Location     Type
  8066 ;;                  1    wreg      unsigned char 
  8067 ;; Registers used:
  8068 ;;		wreg, status,2
  8069 ;; Tracked objects:
  8070 ;;		On entry : 0/0
  8071 ;;		On exit  : 0/0
  8072 ;;		Unchanged: 0/0
  8073 ;; Data sizes:     COMRAM   BANK0   BANK1   BANK2   BANK3   BANK4   BANK5   BANK6   BANK7   BANK8   BANK9  BANK10  BANK1
      +1  BANK12  BANK13  BANK14  BANK15
  8074 ;;      Params:         0       0       0       0       0       0       0       0       0       0       0       0       
      +0       0       0       0       0
  8075 ;;      Locals:         1       0       0       0       0       0       0       0       0       0       0       0       
      +0       0       0       0       0
  8076 ;;      Temps:          0       0       0       0       0       0       0       0       0       0       0       0       
      +0       0       0       0       0
  8077 ;;      Totals:         1       0       0       0       0       0       0       0       0       0       0       0       
      +0       0       0       0       0
  8078 ;;Total ram usage:        1 bytes
  8079 ;; Hardware stack levels used:    1
  8080 ;; This function calls:
  8081 ;;		Nothing
  8082 ;; This function is called by:
  8083 ;;		_read_ZIGBEE_long
  8084 ;;		i2_read_ZIGBEE_short
  8085 ;; This function uses a non-reentrant model
  8086 ;;
  8087                           
  8088                           	psect	text58
  8089  0022EE                     __ptext58:
  8090                           	opt stack 0
  8091  0022EE                     i2_SPI_Read:
  8092                           	opt stack 18
  8093                           
  8094                           ;zigbee.c: 464: unsigned char TempVar;
  8095                           ;zigbee.c: 465: SSP1BUF = 0xff;
  8096                           
  8097                           ;incstack = 0
  8098  0022EE  68C9               	setf	4041,c	;volatile
  8099  0022F0  A0C7               	btfss	4039,0,c	;volatile
  8100  0022F2  D7FE               	goto	i2l533
  8101                           
  8102                           ;zigbee.c: 467: TempVar = SSP1BUF;
  8103  0022F4  CFC9 F02A          	movff	4041,i2SPI_Read@TempVar	;volatile
  8104                           
  8105                           ;zigbee.c: 468: PIR1bits.SSP1IF = 0;
  8106  0022F8  969E               	bcf	3998,3,c	;volatile
  8107                           
  8108                           ;zigbee.c: 469: return ( TempVar );
  8109  0022FA  502A               	movf	i2SPI_Read@TempVar,w,c
  8110  0022FC  0012               	return	
  8111  0022FE                     __end_ofi2_SPI_Read:
  8112                           	opt stack 0
  8113                           tosu	equ	0xFFF
  8114                           tosh	equ	0xFFE
  8115                           tosl	equ	0xFFD
  8116                           pclatu	equ	0xFFB
  8117                           pclath	equ	0xFFA
  8118                           tblptru	equ	0xFF8
  8119                           tblptrh	equ	0xFF7
  8120                           tblptrl	equ	0xFF6
  8121                           tablat	equ	0xFF5
  8122                           prodh	equ	0xFF4
  8123                           prodl	equ	0xFF3
  8124                           intcon	equ	0xFF2
  8125                           intcon2	equ	0xFF1
  8126                           postinc0	equ	0xFEE
  8127                           fsr0h	equ	0xFEA
  8128                           fsr0l	equ	0xFE9
  8129                           wreg	equ	0xFE8
  8130                           indf1	equ	0xFE7
  8131                           postdec1	equ	0xFE5
  8132                           fsr1h	equ	0xFE2
  8133                           fsr1l	equ	0xFE1
  8134                           bsr	equ	0xFE0
  8135                           indf2	equ	0xFDF
  8136                           fsr2h	equ	0xFDA
  8137                           fsr2l	equ	0xFD9
  8138                           status	equ	0xFD8
  8139                           
  8140 ;; *************** function _Zigbee_data_Store_Buffer *****************
  8141 ;; Defined at:
  8142 ;;		line 469 in file "07_May_LedDisplayMain.c"
  8143 ;; Parameters:    Size  Location     Type
  8144 ;;		None
  8145 ;; Auto vars:     Size  Location     Type
  8146 ;;  a               1    0[COMRAM] unsigned char 
  8147 ;; Return value:  Size  Location     Type
  8148 ;;                  1    wreg      void 
  8149 ;; Registers used:
  8150 ;;		wreg, fsr1l, fsr1h, fsr2l, fsr2h, status,2, status,0, prodl, prodh
  8151 ;; Tracked objects:
  8152 ;;		On entry : 0/0
  8153 ;;		On exit  : 0/0
  8154 ;;		Unchanged: 0/0
  8155 ;; Data sizes:     COMRAM   BANK0   BANK1   BANK2   BANK3   BANK4   BANK5   BANK6   BANK7   BANK8   BANK9  BANK10  BANK1
      +1  BANK12  BANK13  BANK14  BANK15
  8156 ;;      Params:         0       0       0       0       0       0       0       0       0       0       0       0       
      +0       0       0       0       0
  8157 ;;      Locals:         1       0       0       0       0       0       0       0       0       0       0       0       
      +0       0       0       0       0
  8158 ;;      Temps:          0       0       0       0       0       0       0       0       0       0       0       0       
      +0       0       0       0       0
  8159 ;;      Totals:         1       0       0       0       0       0       0       0       0       0       0       0       
      +0       0       0       0       0
  8160 ;;Total ram usage:        1 bytes
  8161 ;; Hardware stack levels used:    1
  8162 ;; This function calls:
  8163 ;;		Nothing
  8164 ;; This function is called by:
  8165 ;;		_INTERRUPT_InterruptManagerHigh
  8166 ;; This function uses a non-reentrant model
  8167 ;;
  8168                           
  8169                           	psect	text59
  8170  001F28                     __ptext59:
  8171                           	opt stack 0
  8172  001F28                     _Zigbee_data_Store_Buffer:
  8173                           	opt stack 19
  8174                           
  8175                           ;07_May_LedDisplayMain.c: 471: unsigned char a;
  8176                           ;07_May_LedDisplayMain.c: 472: for(a=0;a<=5;a++){
  8177                           
  8178                           ;incstack = 0
  8179  001F28  0E00               	movlw	0
  8180  001F2A  6E2A               	movwf	Zigbee_data_Store_Buffer@a,c
  8181  001F2C                     i2l2950:
  8182  001F2C  0E05               	movlw	5
  8183  001F2E  642A               	cpfsgt	Zigbee_data_Store_Buffer@a,c
  8184  001F30  D001               	goto	i2l878
  8185  001F32  0012               	return	
  8186  001F34                     i2l878:
  8187                           
  8188                           ;07_May_LedDisplayMain.c: 473: ZigBee_Receive_Buffer[a] = DATA_RX[a];
  8189  001F34  502A               	movf	Zigbee_data_Store_Buffer@a,w,c
  8190  001F36  0D01               	mullw	1
  8191  001F38  0EB3               	movlw	low _DATA_RX
  8192  001F3A  24F3               	addwf	prodl,w,c
  8193  001F3C  6ED9               	movwf	fsr2l,c
  8194  001F3E  0E00               	movlw	high _DATA_RX
  8195  001F40  20F4               	addwfc	prodh,w,c
  8196  001F42  6EDA               	movwf	fsr2h,c
  8197  001F44  502A               	movf	Zigbee_data_Store_Buffer@a,w,c
  8198  001F46  0D01               	mullw	1
  8199  001F48  0E72               	movlw	low _ZigBee_Receive_Buffer
  8200  001F4A  24F3               	addwf	prodl,w,c
  8201  001F4C  6EE1               	movwf	fsr1l,c
  8202  001F4E  0E00               	movlw	high _ZigBee_Receive_Buffer
  8203  001F50  20F4               	addwfc	prodh,w,c
  8204  001F52  6EE2               	movwf	fsr1h,c
  8205  001F54  CFDF FFE7          	movff	indf2,indf1
  8206  001F58  2A2A               	incf	Zigbee_data_Store_Buffer@a,f,c
  8207  001F5A  D7E8               	goto	i2l2950
  8208  001F5C                     __end_of_Zigbee_data_Store_Buffer:
  8209                           	opt stack 0
  8210                           tosu	equ	0xFFF
  8211                           tosh	equ	0xFFE
  8212                           tosl	equ	0xFFD
  8213                           pclatu	equ	0xFFB
  8214                           pclath	equ	0xFFA
  8215                           tblptru	equ	0xFF8
  8216                           tblptrh	equ	0xFF7
  8217                           tblptrl	equ	0xFF6
  8218                           tablat	equ	0xFF5
  8219                           prodh	equ	0xFF4
  8220                           prodl	equ	0xFF3
  8221                           intcon	equ	0xFF2
  8222                           intcon2	equ	0xFF1
  8223                           postinc0	equ	0xFEE
  8224                           fsr0h	equ	0xFEA
  8225                           fsr0l	equ	0xFE9
  8226                           wreg	equ	0xFE8
  8227                           indf1	equ	0xFE7
  8228                           postdec1	equ	0xFE5
  8229                           fsr1h	equ	0xFE2
  8230                           fsr1l	equ	0xFE1
  8231                           bsr	equ	0xFE0
  8232                           indf2	equ	0xFDF
  8233                           fsr2h	equ	0xFDA
  8234                           fsr2l	equ	0xFD9
  8235                           status	equ	0xFD8
  8236                           
  8237 ;; *************** function _INT0_ISR *****************
  8238 ;; Defined at:
  8239 ;;		line 32 in file "mcc_generated_files/ext_int.c"
  8240 ;; Parameters:    Size  Location     Type
  8241 ;;		None
  8242 ;; Auto vars:     Size  Location     Type
  8243 ;;		None
  8244 ;; Return value:  Size  Location     Type
  8245 ;;                  1    wreg      void 
  8246 ;; Registers used:
  8247 ;;		wreg, status,2, status,0, pclath, tosl, cstack
  8248 ;; Tracked objects:
  8249 ;;		On entry : 0/0
  8250 ;;		On exit  : 0/0
  8251 ;;		Unchanged: 0/0
  8252 ;; Data sizes:     COMRAM   BANK0   BANK1   BANK2   BANK3   BANK4   BANK5   BANK6   BANK7   BANK8   BANK9  BANK10  BANK1
      +1  BANK12  BANK13  BANK14  BANK15
  8253 ;;      Params:         0       0       0       0       0       0       0       0       0       0       0       0       
      +0       0       0       0       0
  8254 ;;      Locals:         0       0       0       0       0       0       0       0       0       0       0       0       
      +0       0       0       0       0
  8255 ;;      Temps:          0       0       0       0       0       0       0       0       0       0       0       0       
      +0       0       0       0       0
  8256 ;;      Totals:         0       0       0       0       0       0       0       0       0       0       0       0       
      +0       0       0       0       0
  8257 ;;Total ram usage:        0 bytes
  8258 ;; Hardware stack levels used:    1
  8259 ;; Hardware stack levels required when called:    2
  8260 ;; This function calls:
  8261 ;;		_INT0_CallBack
  8262 ;; This function is called by:
  8263 ;;		_INTERRUPT_InterruptManagerHigh
  8264 ;; This function uses a non-reentrant model
  8265 ;;
  8266                           
  8267                           	psect	text60
  8268  002334                     __ptext60:
  8269                           	opt stack 0
  8270  002334                     _INT0_ISR:
  8271                           	opt stack 17
  8272                           
  8273                           ;ext_int.c: 34: (INTCONbits.INT0IF = 0);
  8274                           
  8275                           ;incstack = 0
  8276  002334  92F2               	bcf	intcon,1,c	;volatile
  8277                           
  8278                           ;ext_int.c: 37: INT0_CallBack();
  8279  002336  EC73  F010         	call	_INT0_CallBack	;wreg free
  8280  00233A  0012               	return		;funcret
  8281  00233C                     __end_of_INT0_ISR:
  8282                           	opt stack 0
  8283                           tosu	equ	0xFFF
  8284                           tosh	equ	0xFFE
  8285                           tosl	equ	0xFFD
  8286                           pclatu	equ	0xFFB
  8287                           pclath	equ	0xFFA
  8288                           tblptru	equ	0xFF8
  8289                           tblptrh	equ	0xFF7
  8290                           tblptrl	equ	0xFF6
  8291                           tablat	equ	0xFF5
  8292                           prodh	equ	0xFF4
  8293                           prodl	equ	0xFF3
  8294                           intcon	equ	0xFF2
  8295                           intcon2	equ	0xFF1
  8296                           postinc0	equ	0xFEE
  8297                           fsr0h	equ	0xFEA
  8298                           fsr0l	equ	0xFE9
  8299                           wreg	equ	0xFE8
  8300                           indf1	equ	0xFE7
  8301                           postdec1	equ	0xFE5
  8302                           fsr1h	equ	0xFE2
  8303                           fsr1l	equ	0xFE1
  8304                           bsr	equ	0xFE0
  8305                           indf2	equ	0xFDF
  8306                           fsr2h	equ	0xFDA
  8307                           fsr2l	equ	0xFD9
  8308                           status	equ	0xFD8
  8309                           
  8310 ;; *************** function _INT0_CallBack *****************
  8311 ;; Defined at:
  8312 ;;		line 41 in file "mcc_generated_files/ext_int.c"
  8313 ;; Parameters:    Size  Location     Type
  8314 ;;		None
  8315 ;; Auto vars:     Size  Location     Type
  8316 ;;		None
  8317 ;; Return value:  Size  Location     Type
  8318 ;;                  1    wreg      void 
  8319 ;; Registers used:
  8320 ;;		wreg, status,2, status,0, pclath, tosl, cstack
  8321 ;; Tracked objects:
  8322 ;;		On entry : 0/0
  8323 ;;		On exit  : 0/0
  8324 ;;		Unchanged: 0/0
  8325 ;; Data sizes:     COMRAM   BANK0   BANK1   BANK2   BANK3   BANK4   BANK5   BANK6   BANK7   BANK8   BANK9  BANK10  BANK1
      +1  BANK12  BANK13  BANK14  BANK15
  8326 ;;      Params:         0       0       0       0       0       0       0       0       0       0       0       0       
      +0       0       0       0       0
  8327 ;;      Locals:         0       0       0       0       0       0       0       0       0       0       0       0       
      +0       0       0       0       0
  8328 ;;      Temps:          0       0       0       0       0       0       0       0       0       0       0       0       
      +0       0       0       0       0
  8329 ;;      Totals:         0       0       0       0       0       0       0       0       0       0       0       0       
      +0       0       0       0       0
  8330 ;;Total ram usage:        0 bytes
  8331 ;; Hardware stack levels used:    1
  8332 ;; Hardware stack levels required when called:    1
  8333 ;; This function calls:
  8334 ;;		Absolute function
  8335 ;;		_INT0_DefaultInterruptHandler
  8336 ;; This function is called by:
  8337 ;;		_INT0_ISR
  8338 ;; This function uses a non-reentrant model
  8339 ;;
  8340                           
  8341                           	psect	text61
  8342  0020E6                     __ptext61:
  8343                           	opt stack 0
  8344  0020E6                     _INT0_CallBack:
  8345                           	opt stack 17
  8346                           
  8347                           ;ext_int.c: 44: if(INT0_InterruptHandler)
  8348                           
  8349                           ;incstack = 0
  8350  0020E6  0100               	movlb	0	; () banked
  8351  0020E8  5189               	movf	_INT0_InterruptHandler& (0+255),w,b
  8352  0020EA  118A               	iorwf	(_INT0_InterruptHandler+1)& (0+255),w,b
  8353  0020EC  118B               	iorwf	(_INT0_InterruptHandler+2)& (0+255),w,b
  8354  0020EE  B4D8               	btfsc	status,2,c
  8355  0020F0  0012               	return	
  8356                           
  8357                           ; BSR set to: 0
  8358                           ;ext_int.c: 45: {
  8359                           ;ext_int.c: 46: INT0_InterruptHandler();
  8360  0020F2  D801               	call	i2u169_48
  8361  0020F4  0012               	return	
  8362  0020F6                     i2u169_48:
  8363  0020F6  0005               	push	
  8364  0020F8  6EFA               	movwf	pclath,c
  8365  0020FA  5189               	movf	_INT0_InterruptHandler& (0+255),w,b
  8366  0020FC  6EFD               	movwf	tosl,c
  8367  0020FE  518A               	movf	(_INT0_InterruptHandler+1)& (0+255),w,b
  8368  002100  6EFE               	movwf	tosh,c
  8369  002102  518B               	movf	(_INT0_InterruptHandler+2)& (0+255),w,b
  8370  002104  6EFF               	movwf	tosu,c
  8371  002106  50FA               	movf	pclath,w,c
  8372  002108  0012               	return		;indir
  8373  00210A                     __end_of_INT0_CallBack:
  8374                           	opt stack 0
  8375                           tosu	equ	0xFFF
  8376                           tosh	equ	0xFFE
  8377                           tosl	equ	0xFFD
  8378                           pclatu	equ	0xFFB
  8379                           pclath	equ	0xFFA
  8380                           tblptru	equ	0xFF8
  8381                           tblptrh	equ	0xFF7
  8382                           tblptrl	equ	0xFF6
  8383                           tablat	equ	0xFF5
  8384                           prodh	equ	0xFF4
  8385                           prodl	equ	0xFF3
  8386                           intcon	equ	0xFF2
  8387                           intcon2	equ	0xFF1
  8388                           postinc0	equ	0xFEE
  8389                           fsr0h	equ	0xFEA
  8390                           fsr0l	equ	0xFE9
  8391                           wreg	equ	0xFE8
  8392                           indf1	equ	0xFE7
  8393                           postdec1	equ	0xFE5
  8394                           fsr1h	equ	0xFE2
  8395                           fsr1l	equ	0xFE1
  8396                           bsr	equ	0xFE0
  8397                           indf2	equ	0xFDF
  8398                           fsr2h	equ	0xFDA
  8399                           fsr2l	equ	0xFD9
  8400                           status	equ	0xFD8
  8401                           
  8402 ;; *************** function _INT0_DefaultInterruptHandler *****************
  8403 ;; Defined at:
  8404 ;;		line 54 in file "mcc_generated_files/ext_int.c"
  8405 ;; Parameters:    Size  Location     Type
  8406 ;;		None
  8407 ;; Auto vars:     Size  Location     Type
  8408 ;;		None
  8409 ;; Return value:  Size  Location     Type
  8410 ;;                  1    wreg      void 
  8411 ;; Registers used:
  8412 ;;		None
  8413 ;; Tracked objects:
  8414 ;;		On entry : 0/0
  8415 ;;		On exit  : 0/0
  8416 ;;		Unchanged: 0/0
  8417 ;; Data sizes:     COMRAM   BANK0   BANK1   BANK2   BANK3   BANK4   BANK5   BANK6   BANK7   BANK8   BANK9  BANK10  BANK1
      +1  BANK12  BANK13  BANK14  BANK15
  8418 ;;      Params:         0       0       0       0       0       0       0       0       0       0       0       0       
      +0       0       0       0       0
  8419 ;;      Locals:         0       0       0       0       0       0       0       0       0       0       0       0       
      +0       0       0       0       0
  8420 ;;      Temps:          0       0       0       0       0       0       0       0       0       0       0       0       
      +0       0       0       0       0
  8421 ;;      Totals:         0       0       0       0       0       0       0       0       0       0       0       0       
      +0       0       0       0       0
  8422 ;;Total ram usage:        0 bytes
  8423 ;; Hardware stack levels used:    1
  8424 ;; This function calls:
  8425 ;;		Nothing
  8426 ;; This function is called by:
  8427 ;;		_EXT_INT_Initialize
  8428 ;;		_INT0_CallBack
  8429 ;; This function uses a non-reentrant model
  8430 ;;
  8431                           
  8432                           	psect	text62
  8433  002344                     __ptext62:
  8434                           	opt stack 0
  8435  002344                     _INT0_DefaultInterruptHandler:
  8436                           	opt stack 17
  8437                           
  8438                           ;incstack = 0
  8439  002344  0012               	return		;funcret
  8440  002346                     __end_of_INT0_DefaultInterruptHandler:
  8441                           	opt stack 0
  8442                           tosu	equ	0xFFF
  8443                           tosh	equ	0xFFE
  8444                           tosl	equ	0xFFD
  8445                           pclatu	equ	0xFFB
  8446                           pclath	equ	0xFFA
  8447                           tblptru	equ	0xFF8
  8448                           tblptrh	equ	0xFF7
  8449                           tblptrl	equ	0xFF6
  8450                           tablat	equ	0xFF5
  8451                           prodh	equ	0xFF4
  8452                           prodl	equ	0xFF3
  8453                           intcon	equ	0xFF2
  8454                           intcon2	equ	0xFF1
  8455                           postinc0	equ	0xFEE
  8456                           fsr0h	equ	0xFEA
  8457                           fsr0l	equ	0xFE9
  8458                           wreg	equ	0xFE8
  8459                           indf1	equ	0xFE7
  8460                           postdec1	equ	0xFE5
  8461                           fsr1h	equ	0xFE2
  8462                           fsr1l	equ	0xFE1
  8463                           bsr	equ	0xFE0
  8464                           indf2	equ	0xFDF
  8465                           fsr2h	equ	0xFDA
  8466                           fsr2l	equ	0xFD9
  8467                           status	equ	0xFD8
  8468                           tosu	equ	0xFFF
  8469                           tosh	equ	0xFFE
  8470                           tosl	equ	0xFFD
  8471                           pclatu	equ	0xFFB
  8472                           pclath	equ	0xFFA
  8473                           tblptru	equ	0xFF8
  8474                           tblptrh	equ	0xFF7
  8475                           tblptrl	equ	0xFF6
  8476                           tablat	equ	0xFF5
  8477                           prodh	equ	0xFF4
  8478                           prodl	equ	0xFF3
  8479                           intcon	equ	0xFF2
  8480                           intcon2	equ	0xFF1
  8481                           postinc0	equ	0xFEE
  8482                           fsr0h	equ	0xFEA
  8483                           fsr0l	equ	0xFE9
  8484                           wreg	equ	0xFE8
  8485                           indf1	equ	0xFE7
  8486                           postdec1	equ	0xFE5
  8487                           fsr1h	equ	0xFE2
  8488                           fsr1l	equ	0xFE1
  8489                           bsr	equ	0xFE0
  8490                           indf2	equ	0xFDF
  8491                           fsr2h	equ	0xFDA
  8492                           fsr2l	equ	0xFD9
  8493                           status	equ	0xFD8
  8494                           
  8495                           	psect	text63
  8496  000000                     __ptext63:
  8497                           	opt stack 0
  8498                           tosu	equ	0xFFF
  8499                           tosh	equ	0xFFE
  8500                           tosl	equ	0xFFD
  8501                           pclatu	equ	0xFFB
  8502                           pclath	equ	0xFFA
  8503                           tblptru	equ	0xFF8
  8504                           tblptrh	equ	0xFF7
  8505                           tblptrl	equ	0xFF6
  8506                           tablat	equ	0xFF5
  8507                           prodh	equ	0xFF4
  8508                           prodl	equ	0xFF3
  8509                           intcon	equ	0xFF2
  8510                           intcon2	equ	0xFF1
  8511                           postinc0	equ	0xFEE
  8512                           fsr0h	equ	0xFEA
  8513                           fsr0l	equ	0xFE9
  8514                           wreg	equ	0xFE8
  8515                           indf1	equ	0xFE7
  8516                           postdec1	equ	0xFE5
  8517                           fsr1h	equ	0xFE2
  8518                           fsr1l	equ	0xFE1
  8519                           bsr	equ	0xFE0
  8520                           indf2	equ	0xFDF
  8521                           fsr2h	equ	0xFDA
  8522                           fsr2l	equ	0xFD9
  8523                           status	equ	0xFD8
  8524                           
  8525                           	psect	rparam
  8526  0000                     tosu	equ	0xFFF
  8527                           tosh	equ	0xFFE
  8528                           tosl	equ	0xFFD
  8529                           pclatu	equ	0xFFB
  8530                           pclath	equ	0xFFA
  8531                           tblptru	equ	0xFF8
  8532                           tblptrh	equ	0xFF7
  8533                           tblptrl	equ	0xFF6
  8534                           tablat	equ	0xFF5
  8535                           prodh	equ	0xFF4
  8536                           prodl	equ	0xFF3
  8537                           intcon	equ	0xFF2
  8538                           intcon2	equ	0xFF1
  8539                           postinc0	equ	0xFEE
  8540                           fsr0h	equ	0xFEA
  8541                           fsr0l	equ	0xFE9
  8542                           wreg	equ	0xFE8
  8543                           indf1	equ	0xFE7
  8544                           postdec1	equ	0xFE5
  8545                           fsr1h	equ	0xFE2
  8546                           fsr1l	equ	0xFE1
  8547                           bsr	equ	0xFE0
  8548                           indf2	equ	0xFDF
  8549                           fsr2h	equ	0xFDA
  8550                           fsr2l	equ	0xFD9
  8551                           status	equ	0xFD8
  8552                           
  8553                           	psect	temp
  8554  00004F                     btemp:
  8555                           	opt stack 0
  8556  00004F                     	ds	1
  8557  0000                     int$flags	set	btemp
  8558  0000                     wtemp6	set	btemp+1
  8559                           tosu	equ	0xFFF
  8560                           tosh	equ	0xFFE
  8561                           tosl	equ	0xFFD
  8562                           pclatu	equ	0xFFB
  8563                           pclath	equ	0xFFA
  8564                           tblptru	equ	0xFF8
  8565                           tblptrh	equ	0xFF7
  8566                           tblptrl	equ	0xFF6
  8567                           tablat	equ	0xFF5
  8568                           prodh	equ	0xFF4
  8569                           prodl	equ	0xFF3
  8570                           intcon	equ	0xFF2
  8571                           intcon2	equ	0xFF1
  8572                           postinc0	equ	0xFEE
  8573                           fsr0h	equ	0xFEA
  8574                           fsr0l	equ	0xFE9
  8575                           wreg	equ	0xFE8
  8576                           indf1	equ	0xFE7
  8577                           postdec1	equ	0xFE5
  8578                           fsr1h	equ	0xFE2
  8579                           fsr1l	equ	0xFE1
  8580                           bsr	equ	0xFE0
  8581                           indf2	equ	0xFDF
  8582                           fsr2h	equ	0xFDA
  8583                           fsr2l	equ	0xFD9
  8584                           status	equ	0xFD8


Data Sizes:
    Strings     0
    Constant    14
    Data        27
    BSS         173
    Persistent  0
    Stack       0

Auto Spaces:
    Space          Size  Autos    Used
    COMRAM           94     36      78
    BANK0           160     37     154
    BANK1           256     11      52
    BANK2           256      0       0
    BANK3           256      0       0
    BANK4           256      0       0
    BANK5           256      0       0
    BANK6           256      0       0
    BANK7           256      0       0
    BANK8           256      0       0
    BANK9           256      0       0
    BANK10          256      0       0
    BANK11          256      0       0
    BANK12          256      0       0
    BANK13          256      0       0
    BANK14          256      0       0
    BANK15           22      0       0

Pointer List with Targets:

    Xor_check@data_value	PTR unsigned char  size(2) Largest target is 5
		 -> DATA_TX(BANK0[3]), DATA_RX(BANK0[5]), 

    set_PAN_ID@address	PTR unsigned char  size(2) Largest target is 2
		 -> PAN_ID_2(BANK0[2]), 

    set_short_address@address	PTR unsigned char  size(2) Largest target is 2
		 -> ADDRESS_short_2(BANK0[2]), 

    set_long_address@address	PTR unsigned char  size(2) Largest target is 8
		 -> ADDRESS_long_2(BANK0[8]), 

    INT0_SetInterruptHandler@InterruptHandler	PTR FTN()void  size(3) Largest target is 1
		 -> INT0_DefaultInterruptHandler(), 

    INT0_InterruptHandler	PTR FTN()void  size(3) Largest target is 1
		 -> INT0_DefaultInterruptHandler(), Absolute function(), 

    TMR0_SetInterruptHandler@InterruptHandler	PTR FTN()void  size(3) Largest target is 1
		 -> TMR0_DefaultInterruptHandler(), 

    TMR0_InterruptHandler	PTR FTN()void  size(3) Largest target is 1
		 -> Absolute function(), TMR0_DefaultInterruptHandler(), 


Critical Paths under _main in COMRAM

    None.

Critical Paths under _INTERRUPT_InterruptManagerLow in COMRAM

    None.

Critical Paths under _INTERRUPT_InterruptManagerHigh in COMRAM

    _INTERRUPT_InterruptManagerHigh->_read_RX_FIFO
    i2_read_ZIGBEE_short->i2_SPI_Write
    _read_RX_FIFO->_read_ZIGBEE_long
    i2_write_ZIGBEE_short->i2_SPI_Write
    _read_ZIGBEE_long->i2_SPI_Write

Critical Paths under _main in BANK0

    None.

Critical Paths under _INTERRUPT_InterruptManagerLow in BANK0

    _INTERRUPT_InterruptManagerLow->_write_TX_normal_FIFO
    _write_TX_normal_FIFO->i1_write_ZIGBEE_long
    i1_write_ZIGBEE_long->i1_SPI_Write
    _start_transmit->_read_ZIGBEE_short
    _start_transmit->i1_write_ZIGBEE_short
    _read_ZIGBEE_short->i1_SPI_Write
    _set_not_encrypt->i1_write_ZIGBEE_short
    _set_not_ACK->i1_write_ZIGBEE_short
    i1_write_ZIGBEE_short->i1_SPI_Write

Critical Paths under _INTERRUPT_InterruptManagerHigh in BANK0

    None.

Critical Paths under _main in BANK1

    _main->_set_TX_power
    _set_short_address->_write_ZIGBEE_short
    _set_reception_mode->_write_ZIGBEE_short
    _set_long_address->_write_ZIGBEE_short
    _set_frame_format_filter->_write_ZIGBEE_short
    _set_WAKE_from_pin->_write_ZIGBEE_short
    _set_TX_power->_write_ZIGBEE_long
    _set_PAN_ID->_write_ZIGBEE_short
    _pin_reset->_Delay_ms
    _nonbeacon_PAN_coordinator_device->_write_ZIGBEE_short
    _init_ZIGBEE_nonbeacon->_set_channel
    _set_channel->_write_ZIGBEE_long
    _RF_reset->_Delay_ms
    _RF_reset->_write_ZIGBEE_short
    _set_RSSI_mode->_write_ZIGBEE_short
    _set_CCA_mode->_write_ZIGBEE_short
    _pin_wake->_Delay_ms
    _init_ZIGBEE_basic->_write_ZIGBEE_long
    _enable_PLL->_write_ZIGBEE_long
    _write_ZIGBEE_long->_SPI_Write
    _enable_interrupt->_write_ZIGBEE_short
    _write_ZIGBEE_short->_SPI_Write
    _TMR0_Initialize->_TMR0_SetInterruptHandler
    _EXT_INT_Initialize->_INT0_SetInterruptHandler
    _InitSPI->_delay

Critical Paths under _INTERRUPT_InterruptManagerLow in BANK1

    None.

Critical Paths under _INTERRUPT_InterruptManagerHigh in BANK1

    None.

Critical Paths under _main in BANK2

    None.

Critical Paths under _INTERRUPT_InterruptManagerLow in BANK2

    None.

Critical Paths under _INTERRUPT_InterruptManagerHigh in BANK2

    None.

Critical Paths under _main in BANK3

    None.

Critical Paths under _INTERRUPT_InterruptManagerLow in BANK3

    None.

Critical Paths under _INTERRUPT_InterruptManagerHigh in BANK3

    None.

Critical Paths under _main in BANK4

    None.

Critical Paths under _INTERRUPT_InterruptManagerLow in BANK4

    None.

Critical Paths under _INTERRUPT_InterruptManagerHigh in BANK4

    None.

Critical Paths under _main in BANK5

    None.

Critical Paths under _INTERRUPT_InterruptManagerLow in BANK5

    None.

Critical Paths under _INTERRUPT_InterruptManagerHigh in BANK5

    None.

Critical Paths under _main in BANK6

    None.

Critical Paths under _INTERRUPT_InterruptManagerLow in BANK6

    None.

Critical Paths under _INTERRUPT_InterruptManagerHigh in BANK6

    None.

Critical Paths under _main in BANK7

    None.

Critical Paths under _INTERRUPT_InterruptManagerLow in BANK7

    None.

Critical Paths under _INTERRUPT_InterruptManagerHigh in BANK7

    None.

Critical Paths under _main in BANK8

    None.

Critical Paths under _INTERRUPT_InterruptManagerLow in BANK8

    None.

Critical Paths under _INTERRUPT_InterruptManagerHigh in BANK8

    None.

Critical Paths under _main in BANK9

    None.

Critical Paths under _INTERRUPT_InterruptManagerLow in BANK9

    None.

Critical Paths under _INTERRUPT_InterruptManagerHigh in BANK9

    None.

Critical Paths under _main in BANK10

    None.

Critical Paths under _INTERRUPT_InterruptManagerLow in BANK10

    None.

Critical Paths under _INTERRUPT_InterruptManagerHigh in BANK10

    None.

Critical Paths under _main in BANK11

    None.

Critical Paths under _INTERRUPT_InterruptManagerLow in BANK11

    None.

Critical Paths under _INTERRUPT_InterruptManagerHigh in BANK11

    None.

Critical Paths under _main in BANK12

    None.

Critical Paths under _INTERRUPT_InterruptManagerLow in BANK12

    None.

Critical Paths under _INTERRUPT_InterruptManagerHigh in BANK12

    None.

Critical Paths under _main in BANK13

    None.

Critical Paths under _INTERRUPT_InterruptManagerLow in BANK13

    None.

Critical Paths under _INTERRUPT_InterruptManagerHigh in BANK13

    None.

Critical Paths under _main in BANK14

    None.

Critical Paths under _INTERRUPT_InterruptManagerLow in BANK14

    None.

Critical Paths under _INTERRUPT_InterruptManagerHigh in BANK14

    None.

Critical Paths under _main in BANK15

    None.

Critical Paths under _INTERRUPT_InterruptManagerLow in BANK15

    None.

Critical Paths under _INTERRUPT_InterruptManagerHigh in BANK15

    None.

Call Graph Tables:

 ---------------------------------------------------------------------------------
 (Depth) Function   	        Calls       Base Space   Used Autos Params    Refs
 ---------------------------------------------------------------------------------
 (0) _main                                                 0     0      0   83840
                         _Clear_Data
                           _Delay_ms
             _Display_LED_Indication
                            _InitSPI
                           _RF_reset
                  _SYSTEM_Initialize
              _init_ZIGBEE_nonbeacon
   _nonbeacon_PAN_coordinator_device
                          _pin_reset
                           _pin_wake
                         _set_PAN_ID
                       _set_TX_power
                  _set_WAKE_from_pin
            _set_frame_format_filter
                   _set_long_address
                 _set_reception_mode
                  _set_short_address
 ---------------------------------------------------------------------------------
 (1) _set_short_address                                    2     0      2    3437
                                              4 BANK1      2     0      2
                 _write_ZIGBEE_short
 ---------------------------------------------------------------------------------
 (1) _set_reception_mode                                   2     2      0    3498
                                              4 BANK1      2     2      0
                 _write_ZIGBEE_short
 ---------------------------------------------------------------------------------
 (1) _set_long_address                                     3     1      2    3539
                                              4 BANK1      3     1      2
                 _write_ZIGBEE_short
 ---------------------------------------------------------------------------------
 (1) _set_frame_format_filter                              2     2      0    3569
                                              4 BANK1      2     2      0
                 _write_ZIGBEE_short
 ---------------------------------------------------------------------------------
 (1) _set_WAKE_from_pin                                    0     0      0    3285
                 _write_ZIGBEE_short
 ---------------------------------------------------------------------------------
 (1) _set_TX_power                                         2     2      0    4764
                                              9 BANK1      2     2      0
                  _write_ZIGBEE_long
 ---------------------------------------------------------------------------------
 (1) _set_PAN_ID                                           2     0      2    3437
                                              4 BANK1      2     0      2
                 _write_ZIGBEE_short
 ---------------------------------------------------------------------------------
 (1) _pin_reset                                            0     0      0    2394
                           _Delay_ms
 ---------------------------------------------------------------------------------
 (1) _nonbeacon_PAN_coordinator_device                     1     1      0    3424
                                              4 BANK1      1     1      0
                 _write_ZIGBEE_short
 ---------------------------------------------------------------------------------
 (1) _init_ZIGBEE_nonbeacon                                0     0      0   41493
                           _RF_reset
                   _enable_interrupt
                  _init_ZIGBEE_basic
                           _pin_wake
                       _set_CCA_mode
                      _set_RSSI_mode
                        _set_channel
 ---------------------------------------------------------------------------------
 (2) _set_channel                                          1     1      0   10406
                                              9 BANK1      1     1      0
                           _RF_reset
                  _write_ZIGBEE_long
 ---------------------------------------------------------------------------------
 (3) _RF_reset                                             0     0      0    5679
                           _Delay_ms
                 _write_ZIGBEE_short
 ---------------------------------------------------------------------------------
 (2) _set_RSSI_mode                                        2     2      0    3387
                                              4 BANK1      2     2      0
                 _write_ZIGBEE_short
 ---------------------------------------------------------------------------------
 (2) _set_CCA_mode                                         2     2      0    3795
                                              4 BANK1      2     2      0
                 _write_ZIGBEE_short
 ---------------------------------------------------------------------------------
 (1) _pin_wake                                             0     0      0    2394
                           _Delay_ms
 ---------------------------------------------------------------------------------
 (2) _Delay_ms                                             6     4      2    2394
                                              0 BANK1      4     2      2
 ---------------------------------------------------------------------------------
 (2) _init_ZIGBEE_basic                                    0     0      0   12547
                         _enable_PLL
                  _write_ZIGBEE_long
                 _write_ZIGBEE_short
 ---------------------------------------------------------------------------------
 (3) _enable_PLL                                           0     0      0    4631
                  _write_ZIGBEE_long
 ---------------------------------------------------------------------------------
 (2) _write_ZIGBEE_long                                    7     4      3    4631
                                              2 BANK1      7     4      3
                          _SPI_Write
 ---------------------------------------------------------------------------------
 (2) _enable_interrupt                                     0     0      0    3285
                 _write_ZIGBEE_short
 ---------------------------------------------------------------------------------
 (2) _write_ZIGBEE_short                                   2     1      1    3285
                                              2 BANK1      2     1      1
                          _SPI_Write
 ---------------------------------------------------------------------------------
 (3) _SPI_Write                                            2     2      0      34
                                              0 BANK1      2     2      0
 ---------------------------------------------------------------------------------
 (1) _SYSTEM_Initialize                                    0     0      0     242
                     _ADC_Initialize
                 _EXT_INT_Initialize
               _INTERRUPT_Initialize
              _OSCILLATOR_Initialize
             _PIN_MANAGER_Initialize
                    _TMR0_Initialize
 ---------------------------------------------------------------------------------
 (2) _TMR0_Initialize                                      0     0      0     121
           _TMR0_SetInterruptHandler
 ---------------------------------------------------------------------------------
 (3) _TMR0_SetInterruptHandler                             3     0      3     121
                                              0 BANK1      3     0      3
 ---------------------------------------------------------------------------------
 (2) _PIN_MANAGER_Initialize                               0     0      0       0
 ---------------------------------------------------------------------------------
 (2) _OSCILLATOR_Initialize                                0     0      0       0
 ---------------------------------------------------------------------------------
 (2) _INTERRUPT_Initialize                                 0     0      0       0
 ---------------------------------------------------------------------------------
 (2) _EXT_INT_Initialize                                   0     0      0     121
           _INT0_SetInterruptHandler
 ---------------------------------------------------------------------------------
 (3) _INT0_SetInterruptHandler                             3     0      3     121
                                              0 BANK1      3     0      3
 ---------------------------------------------------------------------------------
 (2) _ADC_Initialize                                       0     0      0       0
 ---------------------------------------------------------------------------------
 (1) _InitSPI                                              0     0      0     158
                              _delay
 ---------------------------------------------------------------------------------
 (2) _delay                                                4     2      2     158
                                              0 BANK1      4     2      2
 ---------------------------------------------------------------------------------
 (1) _Display_LED_Indication                               1     1      0      31
                                              0 BANK1      1     1      0
 ---------------------------------------------------------------------------------
 (1) _Clear_Data                                           2     2      0     102
                                              0 BANK1      2     2      0
 ---------------------------------------------------------------------------------
 Estimated maximum stack depth 3
 ---------------------------------------------------------------------------------
 (Depth) Function   	        Calls       Base Space   Used Autos Params    Refs
 ---------------------------------------------------------------------------------
 (6) _INTERRUPT_InterruptManagerLow                       21    21      0    2092
                                             16 BANK0     21    21      0
                           _TMR0_ISR
               _write_TX_normal_FIFO
                         i1_Delay_ms
 ---------------------------------------------------------------------------------
 (7) _write_TX_normal_FIFO                                 7     7      0    1988
                                              9 BANK0      7     7      0
                          _Xor_check
                        _set_not_ACK
                    _set_not_encrypt
                     _start_transmit
                         i1_Delay_ms
                i1_write_ZIGBEE_long
 ---------------------------------------------------------------------------------
 (8) i1_write_ZIGBEE_long                                  7     4      3     271
                                              2 BANK0      7     4      3
                        i1_SPI_Write
 ---------------------------------------------------------------------------------
 (7) i1_Delay_ms                                           6     4      2     104
                                              0 BANK0      4     2      2
 ---------------------------------------------------------------------------------
 (8) _start_transmit                                       0     0      0     405
                  _read_ZIGBEE_short
               i1_write_ZIGBEE_short
 ---------------------------------------------------------------------------------
 (9) _read_ZIGBEE_short                                    2     2      0     170
                                              2 BANK0      2     2      0
                           _SPI_Read
                        i1_SPI_Write
 ---------------------------------------------------------------------------------
 (10) _SPI_Read                                            1     1      0      34
                                              0 BANK0      1     1      0
 ---------------------------------------------------------------------------------
 (8) _set_not_encrypt                                      1     1      0     272
                                              4 BANK0      1     1      0
               i1_write_ZIGBEE_short
 ---------------------------------------------------------------------------------
 (8) _set_not_ACK                                          1     1      0     272
                                              4 BANK0      1     1      0
               i1_write_ZIGBEE_short
 ---------------------------------------------------------------------------------
 (9) i1_write_ZIGBEE_short                                 2     1      1     235
                                              2 BANK0      2     1      1
                        i1_SPI_Write
 ---------------------------------------------------------------------------------
 (9) i1_SPI_Write                                          2     2      0      34
                                              0 BANK0      2     2      0
 ---------------------------------------------------------------------------------
 (8) _Xor_check                                            8     5      3     429
                                              0 BANK0      8     5      3
 ---------------------------------------------------------------------------------
 (7) _TMR0_ISR                                             0     0      0       0
                      _TMR0_CallBack
 ---------------------------------------------------------------------------------
 (8) _TMR0_CallBack                                        0     0      0       0
                   Absolute function *
       _TMR0_DefaultInterruptHandler *
 ---------------------------------------------------------------------------------
 (9) _TMR0_DefaultInterruptHandler                         0     0      0       0
 ---------------------------------------------------------------------------------
 (14) Absolute function(Fake)                              0     0      0       0
 ---------------------------------------------------------------------------------
 Estimated maximum stack depth 14
 ---------------------------------------------------------------------------------
 (Depth) Function   	        Calls       Base Space   Used Autos Params    Refs
 ---------------------------------------------------------------------------------
 (11) _INTERRUPT_InterruptManagerHigh                     20    20      0    1110
                                             16 COMRAM    20    20      0
                           _INT0_ISR
           _Zigbee_data_Store_Buffer
                       _read_RX_FIFO
                        i2_Xor_check
                i2_read_ZIGBEE_short
 ---------------------------------------------------------------------------------
 (12) i2_read_ZIGBEE_short                                 2     2      0     115
                                              2 COMRAM     2     2      0
                         i2_SPI_Read
                        i2_SPI_Write
 ---------------------------------------------------------------------------------
 (12) i2_Xor_check                                         8     5      3     145
                                              0 COMRAM     8     5      3
 ---------------------------------------------------------------------------------
 (12) _read_RX_FIFO                                        7     7      0     760
                                              9 COMRAM     7     7      0
                   _read_ZIGBEE_long
               i2_write_ZIGBEE_short
 ---------------------------------------------------------------------------------
 (13) i2_write_ZIGBEE_short                                2     1      1     142
                                              2 COMRAM     2     1      1
                        i2_SPI_Write
 ---------------------------------------------------------------------------------
 (13) _read_ZIGBEE_long                                    7     5      2     390
                                              2 COMRAM     7     5      2
                         i2_SPI_Read
                        i2_SPI_Write
 ---------------------------------------------------------------------------------
 (13) i2_SPI_Write                                         2     2      0      23
                                              0 COMRAM     2     2      0
 ---------------------------------------------------------------------------------
 (13) i2_SPI_Read                                          1     1      0      23
                                              0 COMRAM     1     1      0
 ---------------------------------------------------------------------------------
 (12) _Zigbee_data_Store_Buffer                            1     1      0      90
                                              0 COMRAM     1     1      0
 ---------------------------------------------------------------------------------
 (12) _INT0_ISR                                            0     0      0       0
                      _INT0_CallBack
 ---------------------------------------------------------------------------------
 (13) _INT0_CallBack                                       0     0      0       0
                   Absolute function *
       _INT0_DefaultInterruptHandler *
 ---------------------------------------------------------------------------------
 (14) _INT0_DefaultInterruptHandler                        0     0      0       0
 ---------------------------------------------------------------------------------
 (14) Absolute function(Fake)                              0     0      0       0
 ---------------------------------------------------------------------------------
 Estimated maximum stack depth 14
 ---------------------------------------------------------------------------------

 Call Graph Graphs:

 _main (ROOT)
   _Clear_Data
   _Delay_ms
   _Display_LED_Indication
   _InitSPI
     _delay
   _RF_reset
     _Delay_ms
     _write_ZIGBEE_short
       _SPI_Write
   _SYSTEM_Initialize
     _ADC_Initialize
     _EXT_INT_Initialize
       _INT0_SetInterruptHandler
     _INTERRUPT_Initialize
     _OSCILLATOR_Initialize
     _PIN_MANAGER_Initialize
     _TMR0_Initialize
       _TMR0_SetInterruptHandler
   _init_ZIGBEE_nonbeacon
     _RF_reset
       _Delay_ms
       _write_ZIGBEE_short
         _SPI_Write
     _enable_interrupt
       _write_ZIGBEE_short
         _SPI_Write
     _init_ZIGBEE_basic
       _enable_PLL
         _write_ZIGBEE_long
           _SPI_Write
       _write_ZIGBEE_long
         _SPI_Write
       _write_ZIGBEE_short
         _SPI_Write
     _pin_wake
       _Delay_ms
     _set_CCA_mode
       _write_ZIGBEE_short
         _SPI_Write
     _set_RSSI_mode
       _write_ZIGBEE_short
         _SPI_Write
     _set_channel
       _RF_reset
         _Delay_ms
         _write_ZIGBEE_short
           _SPI_Write
       _write_ZIGBEE_long
         _SPI_Write
   _nonbeacon_PAN_coordinator_device
     _write_ZIGBEE_short
       _SPI_Write
   _pin_reset
     _Delay_ms
   _pin_wake
     _Delay_ms
   _set_PAN_ID
     _write_ZIGBEE_short
       _SPI_Write
   _set_TX_power
     _write_ZIGBEE_long
       _SPI_Write
   _set_WAKE_from_pin
     _write_ZIGBEE_short
       _SPI_Write
   _set_frame_format_filter
     _write_ZIGBEE_short
       _SPI_Write
   _set_long_address
     _write_ZIGBEE_short
       _SPI_Write
   _set_reception_mode
     _write_ZIGBEE_short
       _SPI_Write
   _set_short_address
     _write_ZIGBEE_short
       _SPI_Write

 _INTERRUPT_InterruptManagerLow (ROOT)
   _TMR0_ISR
     _TMR0_CallBack
       Absolute function(Fake) *
       _TMR0_DefaultInterruptHandler *
   _write_TX_normal_FIFO
     _Xor_check
     _set_not_ACK
       i1_write_ZIGBEE_short
         i1_SPI_Write
     _set_not_encrypt
       i1_write_ZIGBEE_short
         i1_SPI_Write
     _start_transmit
       _read_ZIGBEE_short
         _SPI_Read
         i1_SPI_Write
       i1_write_ZIGBEE_short
         i1_SPI_Write
     i1_Delay_ms
     i1_write_ZIGBEE_long
       i1_SPI_Write
   i1_Delay_ms

 _INTERRUPT_InterruptManagerHigh (ROOT)
   _INT0_ISR
     _INT0_CallBack
       Absolute function(Fake) *
       _INT0_DefaultInterruptHandler *
   _Zigbee_data_Store_Buffer
   _read_RX_FIFO
     _read_ZIGBEE_long
       i2_SPI_Read
       i2_SPI_Write
     i2_write_ZIGBEE_short
       i2_SPI_Write
   i2_Xor_check
   i2_read_ZIGBEE_short
     i2_SPI_Read
     i2_SPI_Write

 Address spaces:
Name               Size   Autos  Total    Cost      Usage
BIGRAM             F15      0       0      37        0.0%
EEDATA             400      0       0       0        0.0%
BITBANK14          100      0       0      33        0.0%
BANK14             100      0       0      34        0.0%
BITBANK13          100      0       0      31        0.0%
BANK13             100      0       0      32        0.0%
BITBANK12          100      0       0      29        0.0%
BANK12             100      0       0      30        0.0%
BITBANK11          100      0       0      27        0.0%
BANK11             100      0       0      28        0.0%
BITBANK10          100      0       0      25        0.0%
BANK10             100      0       0      26        0.0%
BITBANK9           100      0       0      23        0.0%
BANK9              100      0       0      24        0.0%
BITBANK8           100      0       0      21        0.0%
BANK8              100      0       0      22        0.0%
BITBANK7           100      0       0      19        0.0%
BANK7              100      0       0      20        0.0%
BITBANK6           100      0       0      17        0.0%
BANK6              100      0       0      18        0.0%
BITBANK5           100      0       0      15        0.0%
BANK5              100      0       0      16        0.0%
BITBANK4           100      0       0      13        0.0%
BANK4              100      0       0      14        0.0%
BITBANK3           100      0       0      10        0.0%
BANK3              100      0       0      11        0.0%
BITBANK2           100      0       0       8        0.0%
BANK2              100      0       0       9        0.0%
BITBANK1           100      0       0       6        0.0%
BANK1              100      B      34       7       20.3%
BITBANK0            A0      0       0       4        0.0%
BANK0               A0     25      9A       5       96.3%
BITCOMRAM           5E      0       0       0        0.0%
COMRAM              5E     24      4E       1       83.0%
BITBANK15           16      0       0      35        0.0%
BANK15              16      0       0      36        0.0%
BITSFR_1             0      0       0     200        0.0%
SFR_1                0      0       0     200        0.0%
BITSFR               0      0       0     200        0.0%
SFR                  0      0       0     200        0.0%
STACK                0      0       0       2        0.0%
NULL                 0      0       0       0        0.0%
ABS                  0      0     11C      12        0.0%
DATA                 0      0     11C       3        0.0%
CODE                 0      0       0       0        0.0%


Microchip Technology PIC18 Macro Assembler V1.45 build -152302408 
Symbol Table                                                                                   Mon May 07 18:05:15 2018

                                        _T 0014                                          _d 001A  
                                        _g 00A1                                          _i 001C  
                          SPI_Read@TempVar 00BB                                         _R3 1007  
                                       _ii 001B                                         bsr 000FE0  
                              __CFG_BORV$3 000000            __size_of_Display_LED_Indication 00B8  
                            _ID_READ_Store 00A4                            _timer0ReloadVal 00B2  
                             __CFG_CP0$OFF 000000                               __CFG_CP1$OFF 000000  
                             __CFG_CP2$OFF 000000                               __CFG_CP3$OFF 000000  
                             __CFG_CP4$OFF 000000                  i2read_ZIGBEE_short@data_r 002D  
                             __CFG_CP5$OFF 000000                               __CFG_CP6$OFF 000000  
                             __CFG_CP7$OFF 000000                                        l403 1F06  
                                      l423 1936                                        l431 1DAE  
                                      l424 1894                                        l432 1D8A  
                                      l426 18BC                                        l434 1DA0  
                                      l450 14F2                                        l427 18F6  
                                      l451 1506                                        l444 15E2  
                                      l460 15BA                                        l452 151A  
                                      l461 15CE                                        l453 152E  
                                      l445 14A4                                        l446 1646  
                                      l454 1542                                        l527 22B0  
                                      l455 1556                                        l447 14B6  
                                      l471 1D4C                                        l384 1EF2  
                                      l456 156A                                        l448 14CA  
                                      l480 1AF4                                        l545 21B0  
                                      l457 157E                                        l449 14DE  
                                      l538 215E                                        l458 1592  
                                      l539 215A                                        l459 15A6  
                                      l475 1B10                                        l476 1AA8  
                                      l484 1B86                                        l485 1B3A  
                                      l478 1ABC                                        l479 1AD8  
                                      l487 1B4E                                        l488 1B6A  
                                      l861 1366                                        l862 139A  
                                      l863 139C                                        l864 1472  
                                      l890 19A4                                        l883 19D0  
                                      l891 19AA                                        l892 19B0  
                                      l884 1954                                        l893 19B6  
                                      l886 1974                                        l887 1980  
                                      l888 198C                                        l889 1998  
                                      _CRC 0099                               __CFG_CPB$OFF 000000  
                    i2Xor_check@data_value 002A                               __CFG_CPD$OFF 000000  
                                      _LQI 0024                   Display_LED_Indication@Id 0129  
                         _set_long_address 1EF4                 ??_INT0_SetInterruptHandler 012C  
                                      _Vcc 1004                                        prod 000FF3  
                                      tosl 000FFD                                        wreg 000FE8  
                            _INT0_CallBack 20E6                    __size_of_start_transmit 003E  
               i2read_ZIGBEE_short@address 002C                                i2_Xor_check 1E02  
              read_ZIGBEE_long@address_low 0032                      ?_write_TX_normal_FIFO 002A  
                                     l3508 1EFE                                       l3486 1ED0  
                                     _DATA 0026                                       u1160 149E  
                                     _LATA 000F89                                       _LATB 000F8A  
                                     _LATC 000F8B                                       _LATD 000F8C  
                                     _LATE 000F8D                                       _LATF 000F8E  
                                     _LATG 000F8F                                       _Nilp 000B  
                                     _Tick 0010                                       _main 1292  
                    write_TX_normal_FIFO@i 00CA                      write_TX_normal_FIFO@n 00C9  
                                     _tick 0003                                       fsr0h 000FEA  
                                     fsr1h 000FE2                                       fsr2h 000FDA  
                                     fsr0l 000FE9                                       indf1 000FE7  
                                     indf2 000FDF                                       fsr1l 000FE1  
                                     fsr2l 000FD9                                       btemp 004F  
                               _Clear_Data 1EBE                            _Previous_Status 00A5  
                                     prodh 000FF4                                       prodl 000FF3  
                                     start 011A                              __CFG_IESO$OFF 000000  
                       _set_reception_mode 1B2E                              __CFG_MCLRE$ON 000000  
                 ?_set_frame_format_filter 002A                               ___param_bank 000000  
                        i2Xor_check@length 002C                            _set_not_encrypt 2242  
                    __end_of_set_RSSI_mode 1DC0                            __end_of_InitSPI 209E  
                          set_not_ACK@temp 00BF                     set_RSSI_mode@RSSI_mode 012D  
                __size_of_enable_interrupt 000E                    __end_of_TMR0_Initialize 1FE2  
                         __end_of_INT0_ISR 233C             ??_TMR0_DefaultInterruptHandler 00BB  
                            __CFG_RETEN$ON 000000             __size_of_OSCILLATOR_Initialize 0014  
                      ?_set_reception_mode 002A                     ?_init_ZIGBEE_nonbeacon 002A  
            __end_of_OSCILLATOR_Initialize 2296                                ?i2_SPI_Read 002A  
                                    ?_main 002A                                      _CHECK 0027  
                                    _EEADR 000F62                        _data_TX_normal_FIFO 0060  
                                    _T0CON 000FD5                             __CFG_DEBUG$OFF 000000  
                              ?i1_Delay_ms 00BB                                      _ERROR 0017  
                                    i1l506 1E98                                      i1l533 22BC  
                                    i1l527 22D4                                      i1l545 21CC  
                                    i1l572 1DE8                                      i1l492 16CA  
                                    i1l573 1DD4                                      i1l852 00C2  
                                    i2l533 22F0                                      i1l853 00B2  
                                    i2l390 1118                                      i1l854 00BE  
                                    i2l527 22E4                                      i2l387 1048  
                                    i2l572 1E28                                      i2l389 10B8  
                                    i2l573 1E14                                      i2l844 183C  
                                    i2l845 1838                                      i2l878 1F34  
                                    _F_MSG 00A6                                      _VALUE 000D  
                      i2SPI_Write@response 002A                                      _TMR0H 000FD7  
                                    _TMR0L 000FD6                                      _PORTE 000F84  
                                    _RSSI2 0023                                      _TRISA 000F92  
                                    _TRISB 000F93                             ?_INT0_CallBack 002A  
                                    _TRISC 000F94                                      _TRISD 000F95  
                                    _TRISE 000F96                                      _TRISF 000F97  
                                    _TRISG 000F98                              _VoltageOutput 0083  
               ??_Zigbee_data_Store_Buffer 002A                                      _TX_ID 0011  
        __size_of_TMR0_SetInterruptHandler 000E                                      _Delta 007C  
                            __CFG_WRT0$OFF 000000                              __CFG_WRT1$OFF 000000  
                            __CFG_WRT2$OFF 000000                  ?_TMR0_SetInterruptHandler 0129  
                            __CFG_WRT3$OFF 000000                              __CFG_WRT4$OFF 000000  
                           __CFG_EBRT0$OFF 000000                              __CFG_WRT5$OFF 000000  
                                    _Light 0078                             __CFG_EBRT1$OFF 000000  
                            __CFG_WRT6$OFF 000000                             __CFG_EBRT2$OFF 000000  
                            __CFG_WRT7$OFF 000000                             __CFG_EBRT3$OFF 000000  
                           __CFG_EBRT4$OFF 000000                             __CFG_FCMEN$OFF 000000  
                           __CFG_EBRT5$OFF 000000                             __CFG_EBRT6$OFF 000000  
                           __CFG_EBRT7$OFF 000000                           __end_of_TMR0_ISR 2334  
                                    _Trick 000F                              __CFG_WRTB$OFF 000000  
                            __CFG_WRTC$OFF 000000                                      _Store 0019  
                            __CFG_WRTD$OFF 000000                             __CFG_EBRTB$OFF 000000  
                                    _ckeck 0095                                      _delay 214E  
                                    _tick1 00A9                                      _tick2 00AA  
                                    _value 000E                           __end_of_SPI_Read 22CC  
                   _Display_LED_Indication 194E                                      pclath 000FFA  
                     ??_set_reception_mode 012D                                      tablat 000FF5  
                         __end_of_RF_reset 200A                                      status 000FD8  
                                    wtemp6 0050                         __size_of_SPI_Write 0012  
           ?_INTERRUPT_InterruptManagerLow 002A                           __end_of_Delay_ms 21C2  
                 __end_of_read_ZIGBEE_long 1CF8                            __initialization 1B9E  
                             __end_of_main 148C                           read_RX_FIFO@temp 0038  
             __end_ofi2_write_ZIGBEE_short 218A                             _ADDRESS_long_1 00E0  
                           _ADDRESS_long_2 00EE                                     ??_main 0134  
                             ?i1_SPI_Write 002A                              ?_read_RX_FIFO 002A  
                            __activetblptr 000003                             __CFG_PLLCFG$ON 000000  
                   ??_write_TX_normal_FIFO 00C4                                     ?_delay 0129  
                             ?i2_SPI_Write 002A                                     _ADCON0 000FC2  
                                   _ADCON1 000FC1                                     _ADCON2 000FC0  
                               _Send_Frame 0005                                     _ADRESH 000FC4  
                                   _ADRESL 000FC3                                     _EEDATA 000F61  
                                   _EECON2 000F7E                                     _ANCON0 000F25  
                                   _ANCON1 000F24                                     _ANCON2 000F23  
                                   _ALT_ON 00A7                                     _LENGTH 0028  
                                   i1l4022 00B2   __end_of_nonbeacon_PAN_coordinator_device 1E80  
__size_of_nonbeacon_PAN_coordinator_device 003E          ?_nonbeacon_PAN_coordinator_device 002A  
       ??_nonbeacon_PAN_coordinator_device 012D           _nonbeacon_PAN_coordinator_device 1E42  
                          __CFG_BBSIZ$BB2K 000000                                     i1l3626 16C2  
                                   i1l3646 171A                             __CFG_WDTEN$OFF 000000  
                                   _ID_SET 00AE                                     i2l2950 1F2C  
                                   _F_LED1 00A8                           SPI_Write@command 012A  
                                   _OSCCON 000FD3              __size_ofi1_write_ZIGBEE_short 0024  
                                   _AdcRef 100A                    __end_of_set_not_encrypt 2258  
                      __size_ofi2_SPI_Read 0010                                ?_Clear_Data 002A  
                             ?_set_channel 002A                           set_CCA_mode@temp 012E  
                                ??_InitSPI 012D                                     _TX_CRC 009B  
                                   _Count1 00B1                                     _Count2 00B0  
                      __size_ofi1_Delay_ms 001C                                     _Rv_CRC 009D  
                           __CFG_XINST$OFF 000000                    write_ZIGBEE_long@data_r 012D  
                             ?_set_not_ACK 002A                   set_short_address@address 012D  
                           __CFG_STVREN$ON 000000                                     _data_r 0025  
                               _Time_start 0093                           ?_TMR0_Initialize 002A  
                                   delay@l 012B                                     clear_0 1BD6  
                                   clear_1 1BE2                                     clear_2 1BEE  
                        _set_WAKE_from_pin 218A                             ??_read_RX_FIFO 0033  
                          ??_INT0_CallBack 002A                           __end_of_pin_wake 22A8  
                      Xor_check@data_value 00BB                         ?_set_WAKE_from_pin 002A  
                        __end_of_SPI_Write 22BA                  i1write_ZIGBEE_long@data_r 00BF  
                             __pdataCOMRAM 004E                         Xor_check@xor_value 00BF  
                             __mediumconst 0000                               _data_RX_FIFO 0100  
                           _start_transmit 1E80                                     tblptrh 000FF7  
                                   tblptrl 000FF6                                     tblptru 000FF8  
                Zigbee_data_Store_Buffer@a 002A                      __end_of_TMR0_CallBack 20E6  
              __end_ofi1_write_ZIGBEE_long 1CA6   INT0_SetInterruptHandler@InterruptHandler 0129  
 TMR0_SetInterruptHandler@InterruptHandler 0129                        ??_set_WAKE_from_pin 012D  
                        _init_ZIGBEE_basic 1A06              __size_of_INTERRUPT_Initialize 0006  
         ??_INTERRUPT_InterruptManagerHigh 003A            ?_INTERRUPT_InterruptManagerHigh 002A  
                        _SYSTEM_Initialize 21F8                         ?_init_ZIGBEE_basic 002A  
                               __accesstop 0060                    __end_of__initialization 1BF4  
                            ?_set_CCA_mode 002A                                  ?_INT0_ISR 002A  
                       __size_of_Xor_check 0042                                 _Store_DATA 0086  
             __size_ofi2_read_ZIGBEE_short 0022                         ?_SYSTEM_Initialize 002A  
                 __end_of_set_long_address 1F28                              ___rparam_used 000001  
                      ??_init_ZIGBEE_basic 0132                             __pcstackCOMRAM 002A  
                             __pidataBANK0 21DE       nonbeacon_PAN_coordinator_device@temp 012D  
                      ??_SYSTEM_Initialize 012C                                  ?_TMR0_ISR 002A  
                            __end_of_delay 216C                  __end_of_set_WAKE_from_pin 21A6  
                         _enable_interrupt 22FE                                 __end_of_R3 100A  
                                ?_SPI_Read 002A                        __end_of_Resistance0 1004  
                   __end_of_start_transmit 1EBE                __size_of_EXT_INT_Initialize 001A  
                                ?_RF_reset 002A                        __size_of_Clear_Data 0036  
                                ?_Delay_ms 0129                               Xor_check@xor 00C1  
                __end_of_init_ZIGBEE_basic 1A9C                __size_of_write_ZIGBEE_short 0024  
                             ?i2_Xor_check 002A              write_ZIGBEE_long@address_high 0130  
                 read_ZIGBEE_short@address 00BE                                    ??_delay 012B  
                __end_of_SYSTEM_Initialize 2212                            _ADDRESS_short_1 00EA  
                          _ADDRESS_short_2 00F8                                 __pbssBANK0 0060  
                               __pbssBANK1 0100                             ??_set_CCA_mode 012D  
                     i2_write_ZIGBEE_short 216C                      _INT0_InterruptHandler 0089  
                               ??_INT0_ISR 002A                           ?_set_not_encrypt 002A  
                            ?_set_TX_power 002A                    ??_init_ZIGBEE_nonbeacon 0133  
         __end_of_TMR0_SetInterruptHandler 231A                                 ??_TMR0_ISR 00BB  
              i2write_ZIGBEE_short@address 002D                         __size_of_pin_reset 0022  
                               _enable_PLL 226E                               ??i2_SPI_Read 002A  
                               ??_SPI_Read 00BB                                    _DATA_RX 00B3  
                                  _DATA_TX 00B8                    __size_of_ADC_Initialize 0016  
                             ??i1_Delay_ms 00BD                          __end_of_Xor_check 1E02  
                          ?_start_transmit 002A                                 ??_RF_reset 012D  
                                  _ID_READ 000A                           _Zigbee_Device_Id 0115  
         __size_of_set_frame_format_filter 0092                                    _REFOCON 000F2A  
                     __size_ofi1_SPI_Write 0012                                 ??_Delay_ms 012B  
                                  _OSCCON2 000F64                                    _F_ERROR 0016  
                       i1SPI_Write@command 00BC                    ?_Display_LED_Indication 002A  
                                  _OSCTUNE 000F9B                                    i2u81_40 111C  
                                  _F_IdSet 001D                                    _SSP1BUF 000FC9  
              set_frame_format_filter@temp 012E                                    _F_SetID 0013  
                                  _F_Input 0020                 i2write_ZIGBEE_short@data_r 002C  
                                  _T_ERROR 0097                     set_reception_mode@temp 012E  
                     __size_ofi2_SPI_Write 0010                      ?i2_write_ZIGBEE_short 002C  
        __size_of_INT0_SetInterruptHandler 000E                                    _T_Input 0021  
                     __end_of_read_RX_FIFO 1292                  ?_INT0_SetInterruptHandler 0129  
                                  _InitSPI 207A                         __end_ofi2_SPI_Read 22FE  
                        SPI_Write@response 0129                             ??_set_TX_power 0132  
                          Xor_check@length 00BD                            __CFG_PWRTEN$OFF 000000  
                                ?_pin_wake 002A                                    __Hparam 0000  
                            _HEADER_LENGHT 100D                          ?_read_ZIGBEE_long 002C  
                       __end_ofi1_Delay_ms 21DE                                    __Lparam 0000  
                     __size_of_set_channel 01C0                   write_ZIGBEE_long@address 012B  
                              _Resistance0 1001                         ??_read_ZIGBEE_long 002E  
                  read_ZIGBEE_long@address 002C                 __size_of_set_WAKE_from_pin 001C  
                             __psmallconst 1000                                    _address 000C  
                     __size_of_set_not_ACK 0016                          set_long_address@i 012F  
                                  __pcinit 1B9E                                    __ramtop 1000  
                                  __ptext0 1292                                    __ptext1 1F5C  
                                  __ptext2 1B2E                                    __ptext3 1EF4  
                                  __ptext4 1A9C                                    __ptext5 218A  
                                  __ptext6 1D3C                                    __ptext7 1F8A  
                                  __ptext8 210A                                    __ptext9 1E42  
                                _T0CONbits 000FD5                      _OSCILLATOR_Initialize 2282  
           __end_of_Display_LED_Indication 1A06             i1write_ZIGBEE_long@address_low 00C3  
                 ??_PIN_MANAGER_Initialize 0129                          __CFG_MSSPMSK$MSK7 000000  
                                _LED_FRAME 008F                     _address_TX_normal_FIFO 009F  
               __size_of_init_ZIGBEE_basic 0096                                 _set_PAN_ID 1F8A  
               __size_of_SYSTEM_Initialize 001A                             __pintcode_body 17AC  
                   __size_of_set_RSSI_mode 0042                       end_of_initialization 1BF4  
                        __end_of_pin_reset 212C                 i1write_ZIGBEE_long@address 00BD  
              __size_of_set_reception_mode 0070            i1write_ZIGBEE_long@address_high 00C2  
                                Delay_ms@y 012B                            _address_RX_FIFO 00EC  
                                  int_func 17AC                               ??_Clear_Data 0129  
                set_channel@channel_number 0132                          _write_ZIGBEE_long 1BFE  
        __size_of_Zigbee_data_Store_Buffer 0034                                  _F_ID_SEND 0006  
                ?_Zigbee_data_Store_Buffer 002A                                 ??_pin_wake 012D  
                                _F_ID_Send 0009                         ?_write_ZIGBEE_long 012B  
                                  postdec1 000FE5                        __end_of_DATA_LENGHT 100F  
                                  postinc0 000FEE                          _set_short_address 1F5C  
                        set_TX_power@power 0133                                ?_enable_PLL 002A  
             __end_ofi1_write_ZIGBEE_short 20C2                                  _F_Calling 0001  
                       ?_set_short_address 012D                        ??_write_ZIGBEE_long 012E  
                     __end_of_set_CCA_mode 194E                   _TMR0_SetInterruptHandler 230C  
                                _PORTAbits 000F80                                  _PORTCbits 000F82  
                                _PORTDbits 000F83                                  _PORTFbits 000F85  
                      i2_read_ZIGBEE_short 212C                           __CFG_FOSC$INTIO2 000000  
                                _F_Receive 00A2                        ??_set_short_address 012F  
                       __end_of_Clear_Data 1EF4                                  _TRISCbits 000F94  
                                _SPI_Write 22A8                        set_not_encrypt@temp 00BF  
                   ??i2_write_ZIGBEE_short 002D                             i2Xor_check@xor 0030  
                 __end_of_enable_interrupt 230C              __size_of_write_TX_normal_FIFO 0160  
                     __size_ofi2_Xor_check 0040                      _ZigBee_Receive_Buffer 0072  
                __end_of_write_ZIGBEE_long 1C52                   set_reception_mode@r_mode 012D  
                     ?i2_read_ZIGBEE_short 002A                                  _T_ID_Send 0012  
                           __end_of_AdcRef 100D                          ?_set_long_address 012D  
                        __size_of_INT0_ISR 0008                  __end_of_set_short_address 1F8A  
                       i2SPI_Write@command 002B                         ??_set_long_address 012F  
                                _Device_ID 00AF                                  _T_Calling 0002  
             __end_of_INTERRUPT_Initialize 2342                              _set_RSSI_mode 1D7E  
     __end_of_INT0_DefaultInterruptHandler 2346      __size_of_INT0_DefaultInterruptHandler 0002  
             _INT0_DefaultInterruptHandler 2344                              __pidataCOMRAM 2346  
                        __size_of_TMR0_ISR 000C                             _ADC_Initialize 222C  
                   ?_OSCILLATOR_Initialize 002A                    _set_frame_format_filter 1A9C  
                                _Count_LED 0015                    set_long_address@address 012D  
                        __size_of_SPI_Read 0012                      __end_of_INT0_CallBack 210A  
                      start_initialization 1B9E                       __end_of_set_TX_power 1D7E  
                 __size_of_TMR0_Initialize 002A            __size_of_PIN_MANAGER_Initialize 0044  
                        __size_of_RF_reset 0028                                __end_of_Vcc 1007  
                              ?_set_PAN_ID 012D                                 ?_SPI_Write 002A  
                        __size_of_Delay_ms 001C                      __size_of_read_RX_FIFO 0282  
                                _InputRead 001E                        __size_of_enable_PLL 0014  
                    ??i2_read_ZIGBEE_short 002C                                _DATA_LENGHT 100E  
             __size_ofi1_write_ZIGBEE_long 0054                                  _Value_LDR 0091  
                           ?_set_RSSI_mode 002A            set_frame_format_filter@fff_mode 012D  
                             Delay_ms@time 0129                     __size_of_TMR0_CallBack 0024  
                         ??_start_transmit 00BF                     __end_of_ADC_Initialize 2242  
           __size_of_init_ZIGBEE_nonbeacon 0024                                __pdataBANK0 00E0  
            __end_of_init_ZIGBEE_nonbeacon 2056                              _ResistanceLDR 0080  
               __end_of_EXT_INT_Initialize 222C              ?_INT0_DefaultInterruptHandler 002A  
                             _read_RX_FIFO 1010                 __end_of_write_ZIGBEE_short 207A  
                     i2Xor_check@xor_value 002E                                __pbssCOMRAM 0001  
         __end_of_INT0_SetInterruptHandler 2328                              __pcstackBANK0 00BB  
                            __pcstackBANK1 0129                          set_RSSI_mode@temp 012E  
                                _Xor_check 1DC0                   write_ZIGBEE_short@data_r 012B  
               __size_of_write_ZIGBEE_long 0054                       i1_write_ZIGBEE_short 209E  
             write_ZIGBEE_long@address_low 0131                    read_ZIGBEE_short@data_r 00BD  
                                 ?_InitSPI 002A                      _TMR0_InterruptHandler 008C  
                   _PIN_MANAGER_Initialize 1CF8                 __size_of_set_short_address 002E  
                        __CFG_CCP2MX$PORTC 000000                                  __pintcode 0008  
                    __size_of_set_CCA_mode 00C6               read_ZIGBEE_long@address_high 0031  
                        __size_of_pin_wake 0012                        __size_of_set_PAN_ID 002E  
                 __size_of_set_not_encrypt 0016                            ?_ADC_Initialize 002A  
                ??_set_frame_format_filter 012D                                __pintcodelo 0018  
                           i1Delay_ms@time 00BB                          i2SPI_Read@TempVar 002A  
                            ??i1_SPI_Write 00BB                                __smallconst 1000  
                             _Send_Frame_2 00AD                  __size_of_read_ZIGBEE_long 0052  
               i1write_ZIGBEE_short@data_r 00BD           __end_of_Zigbee_data_Store_Buffer 1F5C  
                             _F_LDR_STATUS 00A3                                 ?_Xor_check 00BB  
                            ??i2_SPI_Write 002A                                ??_SPI_Write 0129  
                   read_ZIGBEE_long@data_r 0030                             __size_of_delay 001E  
                            _TMR0_CallBack 20C2                       _INTERRUPT_Initialize 233C  
                    ?i1_write_ZIGBEE_short 00BD                          ??_TMR0_Initialize 012C  
                                 _INT0_ISR 2334                               _set_CCA_mode 1888  
                            ??_set_channel 0132                                  _pin_reset 210A  
                                 _PAN_ID_1 00E8                                   _PAN_ID_2 00F6  
                                 _INTTRUPT 0029                                   i1u127_20 16F4  
                                 i1u129_20 179E                                   i1u167_28 20D2  
                          ??_set_RSSI_mode 012D                                  _lost_data 0022  
                                 _F_BUZZER 0008                 ??_TMR0_SetInterruptHandler 012C  
                                 _PIR1bits 000F9E                                   i2u169_48 20F6  
                            ??_set_not_ACK 00BF                                   _RCONbits 000FD0  
                                _slave_add 0018                                   _TMR0_ISR 2328  
                             ??_enable_PLL 0132                                   _F_Buzzer 00AB  
                                 _SPI_Read 22BA                      __size_of_set_TX_power 0042  
                               _ADCON0bits 000FC2                           __CFG_SOSCSEL$DIG 000000  
                                 _RF_reset 1FE2                        i1SPI_Write@response 00BB  
                                 _T_BUZZER 0007             ??_INT0_DefaultInterruptHandler 002A  
                                 _Delay_ms 21A6                              read_RX_FIFO@i 0039  
                           ?_TMR0_CallBack 002A                        __end_ofi1_SPI_Write 22DE  
               __end_of_set_reception_mode 1B9E                                _INTCON2bits 000FF1  
                                copy_data0 1BB2                      ?_INTERRUPT_Initialize 002A  
                 _INT0_SetInterruptHandler 231A            __end_of_set_frame_format_filter 1B2E  
                        ?_enable_interrupt 002A                         __end_of_enable_PLL 2282  
                      __end_ofi2_SPI_Write 22EE                         ??_enable_interrupt 012D  
                        _read_ZIGBEE_short 200A                                 _EECON1bits 000F7F  
                               ?_pin_reset 002A                                Clear_Data@n 0129  
                         __size_of_InitSPI 0024                                   __Hrparam 0000  
                       ?_read_ZIGBEE_short 002A                               _set_TX_power 1D3C  
                                 __Lrparam 0000                         __CFG_BOREN$SBORDIS 000000  
                      __end_of_set_channel 164C               __end_of_write_TX_normal_FIFO 17AC  
                                 _Portread 001F                    ??_OSCILLATOR_Initialize 0129  
                      ??_read_ZIGBEE_short 00BD                        __end_of_set_not_ACK 226E  
                __size_of_set_long_address 0034                        i1_write_ZIGBEE_long 1C52  
                        ??_set_not_encrypt 00BF            ??_INTERRUPT_InterruptManagerLow 00CB  
                            ??i2_Xor_check 002D                               ??_set_PAN_ID 012F  
                              ??_Xor_check 00BE                                i1Delay_ms@y 00BD  
                                 __ptext10 2032                                   __ptext11 148C  
                                 __ptext20 22FE                                   __ptext12 1FE2  
                                 __ptext21 2056                                   __ptext13 1D7E  
                                 __ptext30 231A                                   __ptext22 22A8  
                                 __ptext14 1888                                   __ptext31 222C  
                                 __ptext23 21F8                                   __ptext15 2296  
                                 __ptext40 1E80                                   __ptext32 207A  
                                 __ptext24 1FB8                                   __ptext16 21A6  
                                 __ptext41 200A                                   __ptext33 214E  
                                 __ptext25 230C                                   __ptext17 1A06  
                                 __ptext50 2342                                   __ptext42 22BA  
                                 __ptext34 194E                                   __ptext26 1CF8  
                                 __ptext18 226E                                   __ptext43 2242  
                                 __ptext35 1EBE                                   __ptext27 2282  
                                 __ptext19 1BFE                                   __ptext60 2334  
                                 __ptext52 212C                                   __ptext44 2258  
                                 __ptext28 233C                                   __ptext61 20E6  
                                 __ptext53 1E02                                   __ptext45 209E  
                                 __ptext37 164C                                   __ptext29 2212  
                                 __ptext62 2344                                   __ptext54 1010  
                                 __ptext46 22CC                                   __ptext38 1C52  
                                 __ptext63 0000                                   __ptext55 216C  
                                 __ptext47 1DC0                                   __ptext39 21C2  
                                 __ptext56 1CA6                                   __ptext48 2328  
                                 __ptext57 22DE                                   __ptext49 20C2  
                                 __ptext58 22EE                                   __ptext59 1F28  
                             _SSP1CON1bits 000FC6                     ??i1_write_ZIGBEE_short 00BE  
                __end_of_read_ZIGBEE_short 2032                   _Zigbee_data_Store_Buffer 1F28  
            __size_ofi2_write_ZIGBEE_short 001E                              __size_of_main 01FA  
                     ?i1_write_ZIGBEE_long 00BD                                   delay@dly 0129  
     __end_of_TMR0_DefaultInterruptHandler 2344      __size_of_TMR0_DefaultInterruptHandler 0002  
             _TMR0_DefaultInterruptHandler 2342                                   _pin_wake 2296  
                      __CFG_RTCOSC$SOSCREF 000000                                   int$flags 004F  
                                 _portread 0004                       set_CCA_mode@CCA_mode 012D  
                       __end_of_set_PAN_ID 1FB8                   ??_Display_LED_Indication 0129  
                write_ZIGBEE_short@address 012C                               _SSP1STATbits 000FC7  
                      __CFG_INTOSCSEL$HIGH 000000                                i1_SPI_Write 22CC  
                               _RECEIVE_OK 00AC                           _read_ZIGBEE_long 1CA6  
                               _INTCONbits 000FF2                          set_PAN_ID@address 012D  
                          ??_TMR0_CallBack 00BB                     ??_INTERRUPT_Initialize 0129  
              __end_ofi2_read_ZIGBEE_short 214E                                i2_SPI_Write 22DE  
                       _EXT_INT_Initialize 2212                                   intlevel1 0000  
                                 intlevel2 0000                         _write_ZIGBEE_short 2056  
                      __end_ofi2_Xor_check 1E42                    ?_PIN_MANAGER_Initialize 002A  
                    ??i1_write_ZIGBEE_long 00C0                        ?_EXT_INT_Initialize 002A  
                              _set_channel 148C                                ??_pin_reset 012D  
                    __end_of_HEADER_LENGHT 100E                           ??_ADC_Initialize 0129  
                   __size_of_INT0_CallBack 0024              ?_TMR0_DefaultInterruptHandler 002A  
                      ?_write_ZIGBEE_short 012B                                _set_not_ACK 2258  
                       __CFG_WDTPS$1048576 000000                                 i2_SPI_Read 22EE  
   __end_of_INTERRUPT_InterruptManagerHigh 1888    __size_of_INTERRUPT_InterruptManagerHigh 1880  
           _INTERRUPT_InterruptManagerHigh 0008                      _init_ZIGBEE_nonbeacon 2032  
                     ??_EXT_INT_Initialize 012C                                 i1_Delay_ms 21C2  
                               _SEQ_NUMBER 004E                            _TMR0_Initialize 1FB8  
                     ??_write_ZIGBEE_short 012C      __end_of_INTERRUPT_InterruptManagerLow 011A  
   __size_of_INTERRUPT_InterruptManagerLow 0102              _INTERRUPT_InterruptManagerLow 0018  
              i1write_ZIGBEE_short@address 00BE                       _write_TX_normal_FIFO 164C  
           __end_of_PIN_MANAGER_Initialize 1D3C                 __size_of_read_ZIGBEE_short 0028  
                      __CFG_BORPWR$ZPBORMV 000000  
